
Lab 11.elf:     file format elf32-littlearm

Sections:
Idx Name          Size      VMA       LMA       File off  Algn
  0 .text         000010d4  00000000  00000000  00010000  2**2
                  CONTENTS, ALLOC, LOAD, READONLY, CODE
  1 .relocate     00000434  20000000  000010d4  00020000  2**3
                  CONTENTS, ALLOC, LOAD, DATA
  2 .bss          00000098  20000434  00001508  00020434  2**2
                  ALLOC
  3 .stack        00002004  200004cc  000015a0  00020434  2**0
                  ALLOC
  4 .ARM.attributes 00000028  00000000  00000000  00020434  2**0
                  CONTENTS, READONLY
  5 .comment      00000059  00000000  00000000  0002045c  2**0
                  CONTENTS, READONLY
  6 .debug_info   00013273  00000000  00000000  000204b5  2**0
                  CONTENTS, READONLY, DEBUGGING
  7 .debug_abbrev 0000107f  00000000  00000000  00033728  2**0
                  CONTENTS, READONLY, DEBUGGING
  8 .debug_loc    00009dfa  00000000  00000000  000347a7  2**0
                  CONTENTS, READONLY, DEBUGGING
  9 .debug_aranges 00000540  00000000  00000000  0003e5a1  2**0
                  CONTENTS, READONLY, DEBUGGING
 10 .debug_ranges 00000618  00000000  00000000  0003eae1  2**0
                  CONTENTS, READONLY, DEBUGGING
 11 .debug_macro  00012fdb  00000000  00000000  0003f0f9  2**0
                  CONTENTS, READONLY, DEBUGGING
 12 .debug_line   00003bcb  00000000  00000000  000520d4  2**0
                  CONTENTS, READONLY, DEBUGGING
 13 .debug_str    00077bb6  00000000  00000000  00055c9f  2**0
                  CONTENTS, READONLY, DEBUGGING
 14 .debug_frame  000012f8  00000000  00000000  000cd858  2**2
                  CONTENTS, READONLY, DEBUGGING

Disassembly of section .text:

00000000 <exception_table>:
       0:	d0 24 00 20 55 08 00 00 51 08 00 00 51 08 00 00     .$. U...Q...Q...
	...
      2c:	51 08 00 00 00 00 00 00 00 00 00 00 51 08 00 00     Q...........Q...
      3c:	35 0d 00 00 51 08 00 00 51 08 00 00 51 08 00 00     5...Q...Q...Q...
      4c:	51 08 00 00 51 08 00 00 51 08 00 00 51 08 00 00     Q...Q...Q...Q...
      5c:	51 08 00 00 51 08 00 00 51 08 00 00 51 08 00 00     Q...Q...Q...Q...
      6c:	51 08 00 00 31 0c 00 00 51 08 00 00 51 08 00 00     Q...1...Q...Q...
      7c:	51 08 00 00 51 08 00 00 51 08 00 00 51 08 00 00     Q...Q...Q...Q...
      8c:	51 08 00 00 51 08 00 00 00 00 00 00 00 00 00 00     Q...Q...........
      9c:	51 08 00 00 51 08 00 00 51 08 00 00 51 08 00 00     Q...Q...Q...Q...
      ac:	51 08 00 00 00 00 00 00                             Q.......

000000b4 <__do_global_dtors_aux>:
      b4:	b510      	push	{r4, lr}
      b6:	4c06      	ldr	r4, [pc, #24]	; (d0 <__do_global_dtors_aux+0x1c>)
      b8:	7823      	ldrb	r3, [r4, #0]
      ba:	2b00      	cmp	r3, #0
      bc:	d107      	bne.n	ce <__do_global_dtors_aux+0x1a>
      be:	4b05      	ldr	r3, [pc, #20]	; (d4 <__do_global_dtors_aux+0x20>)
      c0:	2b00      	cmp	r3, #0
      c2:	d002      	beq.n	ca <__do_global_dtors_aux+0x16>
      c4:	4804      	ldr	r0, [pc, #16]	; (d8 <__do_global_dtors_aux+0x24>)
      c6:	e000      	b.n	ca <__do_global_dtors_aux+0x16>
      c8:	bf00      	nop
      ca:	2301      	movs	r3, #1
      cc:	7023      	strb	r3, [r4, #0]
      ce:	bd10      	pop	{r4, pc}
      d0:	20000434 	.word	0x20000434
      d4:	00000000 	.word	0x00000000
      d8:	000010d4 	.word	0x000010d4

000000dc <frame_dummy>:
      dc:	4b08      	ldr	r3, [pc, #32]	; (100 <frame_dummy+0x24>)
      de:	b510      	push	{r4, lr}
      e0:	2b00      	cmp	r3, #0
      e2:	d003      	beq.n	ec <frame_dummy+0x10>
      e4:	4907      	ldr	r1, [pc, #28]	; (104 <frame_dummy+0x28>)
      e6:	4808      	ldr	r0, [pc, #32]	; (108 <frame_dummy+0x2c>)
      e8:	e000      	b.n	ec <frame_dummy+0x10>
      ea:	bf00      	nop
      ec:	4807      	ldr	r0, [pc, #28]	; (10c <frame_dummy+0x30>)
      ee:	6803      	ldr	r3, [r0, #0]
      f0:	2b00      	cmp	r3, #0
      f2:	d100      	bne.n	f6 <frame_dummy+0x1a>
      f4:	bd10      	pop	{r4, pc}
      f6:	4b06      	ldr	r3, [pc, #24]	; (110 <frame_dummy+0x34>)
      f8:	2b00      	cmp	r3, #0
      fa:	d0fb      	beq.n	f4 <frame_dummy+0x18>
      fc:	4798      	blx	r3
      fe:	e7f9      	b.n	f4 <frame_dummy+0x18>
     100:	00000000 	.word	0x00000000
     104:	20000438 	.word	0x20000438
     108:	000010d4 	.word	0x000010d4
     10c:	000010d4 	.word	0x000010d4
     110:	00000000 	.word	0x00000000

00000114 <user_delay_ms>:
//     |__) |__) | \  /  /\   |  |__
//     |    |  \ |  \/  /~~\  |  |___
//
//------------------------------------------------------------------------------
void user_delay_ms(uint32_t ms)
{
     114:	b082      	sub	sp, #8
	DelayMs(ms);
     116:	4b05      	ldr	r3, [pc, #20]	; (12c <user_delay_ms+0x18>)
     118:	4358      	muls	r0, r3
     11a:	08c0      	lsrs	r0, r0, #3
     11c:	9001      	str	r0, [sp, #4]
     11e:	9b01      	ldr	r3, [sp, #4]
     120:	1e5a      	subs	r2, r3, #1
     122:	9201      	str	r2, [sp, #4]
     124:	2b00      	cmp	r3, #0
     126:	d1fa      	bne.n	11e <user_delay_ms+0xa>
}
     128:	b002      	add	sp, #8
     12a:	4770      	bx	lr
     12c:	0000bb80 	.word	0x0000bb80

00000130 <user_i2c_read>:

//=============================================================================
int8_t user_i2c_read(uint8_t dev_addr, uint8_t reg_addr, uint8_t *data, uint16_t length)
{
     130:	b510      	push	{r4, lr}
     132:	0011      	movs	r1, r2
	//i2c_read_setup(dev_addr << 1, &reg_addr, 1);
	i2c_read(dev_addr << 1,data,length);
     134:	0040      	lsls	r0, r0, #1
     136:	b2c0      	uxtb	r0, r0
     138:	001a      	movs	r2, r3
     13a:	4b02      	ldr	r3, [pc, #8]	; (144 <user_i2c_read+0x14>)
     13c:	4798      	blx	r3
	return BMI160_OK;
}
     13e:	2000      	movs	r0, #0
     140:	bd10      	pop	{r4, pc}
     142:	46c0      	nop			; (mov r8, r8)
     144:	00000c1d 	.word	0x00000c1d

00000148 <user_i2c_write>:

//=============================================================================
int8_t user_i2c_write(uint8_t dev_addr, uint8_t reg_addr,
uint8_t *data, uint16_t length)
{
     148:	b530      	push	{r4, r5, lr}
     14a:	b089      	sub	sp, #36	; 0x24
     14c:	0004      	movs	r4, r0
     14e:	0010      	movs	r0, r2
	uint8_t mydata[32];
	if (length > 31) length = 31;
     150:	2b1f      	cmp	r3, #31
     152:	d900      	bls.n	156 <user_i2c_write+0xe>
     154:	231f      	movs	r3, #31
	// Add 1 to include the reg address
	length++;
     156:	3301      	adds	r3, #1
     158:	b29d      	uxth	r5, r3
	//Send the address
	mydata[0] = reg_addr;
     15a:	466b      	mov	r3, sp
     15c:	7019      	strb	r1, [r3, #0]
	bcopy(data, mydata+1, length);
     15e:	002a      	movs	r2, r5
     160:	1c59      	adds	r1, r3, #1
     162:	4b05      	ldr	r3, [pc, #20]	; (178 <user_i2c_write+0x30>)
     164:	4798      	blx	r3
	i2c_write(dev_addr << 1,mydata,length);
     166:	0064      	lsls	r4, r4, #1
     168:	b2e0      	uxtb	r0, r4
     16a:	002a      	movs	r2, r5
     16c:	4669      	mov	r1, sp
     16e:	4b03      	ldr	r3, [pc, #12]	; (17c <user_i2c_write+0x34>)
     170:	4798      	blx	r3
	return BMI160_OK;
}
     172:	2000      	movs	r0, #0
     174:	b009      	add	sp, #36	; 0x24
     176:	bd30      	pop	{r4, r5, pc}
     178:	00000e5d 	.word	0x00000e5d
     17c:	00000bc5 	.word	0x00000bc5

00000180 <accelerometer_init>:
{
     180:	b510      	push	{r4, lr}
	sensor.id = BMI160_I2C_ADDR;
     182:	4c0e      	ldr	r4, [pc, #56]	; (1bc <accelerometer_init+0x3c>)
     184:	2368      	movs	r3, #104	; 0x68
     186:	7063      	strb	r3, [r4, #1]
	sensor.interface = BMI160_I2C_INTF;
     188:	2300      	movs	r3, #0
     18a:	70a3      	strb	r3, [r4, #2]
	sensor.read = user_i2c_read;
     18c:	4b0c      	ldr	r3, [pc, #48]	; (1c0 <accelerometer_init+0x40>)
     18e:	61e3      	str	r3, [r4, #28]
	sensor.write = user_i2c_write;
     190:	4b0c      	ldr	r3, [pc, #48]	; (1c4 <accelerometer_init+0x44>)
     192:	6223      	str	r3, [r4, #32]
	sensor.delay_ms = user_delay_ms;
     194:	4b0c      	ldr	r3, [pc, #48]	; (1c8 <accelerometer_init+0x48>)
     196:	6263      	str	r3, [r4, #36]	; 0x24
	retval = bmi160_init(&sensor);
     198:	0020      	movs	r0, r4
     19a:	4b0c      	ldr	r3, [pc, #48]	; (1cc <accelerometer_init+0x4c>)
     19c:	4798      	blx	r3
	sensor.accel_cfg.odr = BMI160_ACCEL_ODR_1600HZ;
     19e:	230c      	movs	r3, #12
     1a0:	7163      	strb	r3, [r4, #5]
	sensor.accel_cfg.range = BMI160_ACCEL_RANGE_2G;
     1a2:	3b09      	subs	r3, #9
     1a4:	71a3      	strb	r3, [r4, #6]
	sensor.accel_cfg.bw = BMI160_ACCEL_BW_NORMAL_AVG4;
     1a6:	3b01      	subs	r3, #1
     1a8:	71e3      	strb	r3, [r4, #7]
	sensor.accel_cfg.power = BMI160_ACCEL_NORMAL_MODE;
     1aa:	330f      	adds	r3, #15
     1ac:	7123      	strb	r3, [r4, #4]
	rslt = bmi160_set_sens_conf(&sensor);	
     1ae:	0020      	movs	r0, r4
     1b0:	4b07      	ldr	r3, [pc, #28]	; (1d0 <accelerometer_init+0x50>)
     1b2:	4798      	blx	r3
     1b4:	4b07      	ldr	r3, [pc, #28]	; (1d4 <accelerometer_init+0x54>)
     1b6:	7018      	strb	r0, [r3, #0]
}
     1b8:	bd10      	pop	{r4, pc}
     1ba:	46c0      	nop			; (mov r8, r8)
     1bc:	2000046c 	.word	0x2000046c
     1c0:	00000131 	.word	0x00000131
     1c4:	00000149 	.word	0x00000149
     1c8:	00000115 	.word	0x00000115
     1cc:	00000761 	.word	0x00000761
     1d0:	00000801 	.word	0x00000801
     1d4:	20000450 	.word	0x20000450

000001d8 <accelerometer_update>:
{
     1d8:	b510      	push	{r4, lr}
	user_i2c_read(BMI160_I2C_ADDR, BMI160_ACCEL_DATA_ADDR, accel_data, 0);
     1da:	2300      	movs	r3, #0
     1dc:	4a02      	ldr	r2, [pc, #8]	; (1e8 <accelerometer_update+0x10>)
     1de:	2112      	movs	r1, #18
     1e0:	2068      	movs	r0, #104	; 0x68
     1e2:	4c02      	ldr	r4, [pc, #8]	; (1ec <accelerometer_update+0x14>)
     1e4:	47a0      	blx	r4
}
     1e6:	bd10      	pop	{r4, pc}
     1e8:	200004a0 	.word	0x200004a0
     1ec:	00000131 	.word	0x00000131

000001f0 <null_ptr_check>:
     1f0:	2800      	cmp	r0, #0
     1f2:	d00d      	beq.n	210 <null_ptr_check+0x20>
     1f4:	69c3      	ldr	r3, [r0, #28]
     1f6:	2b00      	cmp	r3, #0
     1f8:	d00d      	beq.n	216 <null_ptr_check+0x26>
     1fa:	6a03      	ldr	r3, [r0, #32]
     1fc:	2b00      	cmp	r3, #0
     1fe:	d00d      	beq.n	21c <null_ptr_check+0x2c>
     200:	6a43      	ldr	r3, [r0, #36]	; 0x24
     202:	2b00      	cmp	r3, #0
     204:	d001      	beq.n	20a <null_ptr_check+0x1a>
     206:	2000      	movs	r0, #0
     208:	4770      	bx	lr
     20a:	2001      	movs	r0, #1
     20c:	4240      	negs	r0, r0
     20e:	e7fb      	b.n	208 <null_ptr_check+0x18>
     210:	2001      	movs	r0, #1
     212:	4240      	negs	r0, r0
     214:	e7f8      	b.n	208 <null_ptr_check+0x18>
     216:	2001      	movs	r0, #1
     218:	4240      	negs	r0, r0
     21a:	e7f5      	b.n	208 <null_ptr_check+0x18>
     21c:	2001      	movs	r0, #1
     21e:	4240      	negs	r0, r0
     220:	e7f2      	b.n	208 <null_ptr_check+0x18>

00000222 <default_param_settg>:
     222:	2202      	movs	r2, #2
     224:	71c2      	strb	r2, [r0, #7]
     226:	2308      	movs	r3, #8
     228:	7143      	strb	r3, [r0, #5]
     22a:	2110      	movs	r1, #16
     22c:	7101      	strb	r1, [r0, #4]
     22e:	390d      	subs	r1, #13
     230:	7181      	strb	r1, [r0, #6]
     232:	73c2      	strb	r2, [r0, #15]
     234:	7343      	strb	r3, [r0, #13]
     236:	330c      	adds	r3, #12
     238:	7303      	strb	r3, [r0, #12]
     23a:	2300      	movs	r3, #0
     23c:	7383      	strb	r3, [r0, #14]
     23e:	6843      	ldr	r3, [r0, #4]
     240:	6083      	str	r3, [r0, #8]
     242:	68c3      	ldr	r3, [r0, #12]
     244:	6103      	str	r3, [r0, #16]
     246:	4770      	bx	lr

00000248 <process_accel_odr>:
     248:	794a      	ldrb	r2, [r1, #5]
     24a:	2a0f      	cmp	r2, #15
     24c:	d80c      	bhi.n	268 <process_accel_odr+0x20>
     24e:	7a4b      	ldrb	r3, [r1, #9]
     250:	429a      	cmp	r2, r3
     252:	d00c      	beq.n	26e <process_accel_odr+0x26>
     254:	7803      	ldrb	r3, [r0, #0]
     256:	210f      	movs	r1, #15
     258:	438b      	bics	r3, r1
     25a:	0019      	movs	r1, r3
     25c:	230f      	movs	r3, #15
     25e:	4013      	ands	r3, r2
     260:	430b      	orrs	r3, r1
     262:	7003      	strb	r3, [r0, #0]
     264:	2000      	movs	r0, #0
     266:	4770      	bx	lr
     268:	2004      	movs	r0, #4
     26a:	4240      	negs	r0, r0
     26c:	e7fb      	b.n	266 <process_accel_odr+0x1e>
     26e:	2000      	movs	r0, #0
     270:	e7f9      	b.n	266 <process_accel_odr+0x1e>

00000272 <process_accel_bw>:
     272:	79cb      	ldrb	r3, [r1, #7]
     274:	2b02      	cmp	r3, #2
     276:	d808      	bhi.n	28a <process_accel_bw+0x18>
     278:	7aca      	ldrb	r2, [r1, #11]
     27a:	4293      	cmp	r3, r2
     27c:	d008      	beq.n	290 <process_accel_bw+0x1e>
     27e:	7803      	ldrb	r3, [r0, #0]
     280:	2270      	movs	r2, #112	; 0x70
     282:	4393      	bics	r3, r2
     284:	7003      	strb	r3, [r0, #0]
     286:	2000      	movs	r0, #0
     288:	4770      	bx	lr
     28a:	2004      	movs	r0, #4
     28c:	4240      	negs	r0, r0
     28e:	e7fb      	b.n	288 <process_accel_bw+0x16>
     290:	2000      	movs	r0, #0
     292:	e7f9      	b.n	288 <process_accel_bw+0x16>

00000294 <process_accel_range>:
     294:	798a      	ldrb	r2, [r1, #6]
     296:	2a0c      	cmp	r2, #12
     298:	d80c      	bhi.n	2b4 <process_accel_range+0x20>
     29a:	7a8b      	ldrb	r3, [r1, #10]
     29c:	429a      	cmp	r2, r3
     29e:	d00c      	beq.n	2ba <process_accel_range+0x26>
     2a0:	7803      	ldrb	r3, [r0, #0]
     2a2:	210f      	movs	r1, #15
     2a4:	438b      	bics	r3, r1
     2a6:	0019      	movs	r1, r3
     2a8:	230f      	movs	r3, #15
     2aa:	4013      	ands	r3, r2
     2ac:	430b      	orrs	r3, r1
     2ae:	7003      	strb	r3, [r0, #0]
     2b0:	2000      	movs	r0, #0
     2b2:	4770      	bx	lr
     2b4:	2004      	movs	r0, #4
     2b6:	4240      	negs	r0, r0
     2b8:	e7fb      	b.n	2b2 <process_accel_range+0x1e>
     2ba:	2000      	movs	r0, #0
     2bc:	e7f9      	b.n	2b2 <process_accel_range+0x1e>

000002be <process_gyro_odr>:
     2be:	7b4a      	ldrb	r2, [r1, #13]
     2c0:	2a0d      	cmp	r2, #13
     2c2:	d80c      	bhi.n	2de <process_gyro_odr+0x20>
     2c4:	7c4b      	ldrb	r3, [r1, #17]
     2c6:	429a      	cmp	r2, r3
     2c8:	d00c      	beq.n	2e4 <process_gyro_odr+0x26>
     2ca:	7803      	ldrb	r3, [r0, #0]
     2cc:	210f      	movs	r1, #15
     2ce:	438b      	bics	r3, r1
     2d0:	0019      	movs	r1, r3
     2d2:	230f      	movs	r3, #15
     2d4:	4013      	ands	r3, r2
     2d6:	430b      	orrs	r3, r1
     2d8:	7003      	strb	r3, [r0, #0]
     2da:	2000      	movs	r0, #0
     2dc:	4770      	bx	lr
     2de:	2004      	movs	r0, #4
     2e0:	4240      	negs	r0, r0
     2e2:	e7fb      	b.n	2dc <process_gyro_odr+0x1e>
     2e4:	2000      	movs	r0, #0
     2e6:	e7f9      	b.n	2dc <process_gyro_odr+0x1e>

000002e8 <process_gyro_bw>:
     2e8:	7bcb      	ldrb	r3, [r1, #15]
     2ea:	2b02      	cmp	r3, #2
     2ec:	d809      	bhi.n	302 <process_gyro_bw+0x1a>
     2ee:	7801      	ldrb	r1, [r0, #0]
     2f0:	2230      	movs	r2, #48	; 0x30
     2f2:	4391      	bics	r1, r2
     2f4:	011a      	lsls	r2, r3, #4
     2f6:	2330      	movs	r3, #48	; 0x30
     2f8:	4013      	ands	r3, r2
     2fa:	430b      	orrs	r3, r1
     2fc:	7003      	strb	r3, [r0, #0]
     2fe:	2000      	movs	r0, #0
     300:	4770      	bx	lr
     302:	2004      	movs	r0, #4
     304:	4240      	negs	r0, r0
     306:	e7fb      	b.n	300 <process_gyro_bw+0x18>

00000308 <process_gyro_range>:
     308:	7b8a      	ldrb	r2, [r1, #14]
     30a:	2a04      	cmp	r2, #4
     30c:	d80c      	bhi.n	328 <process_gyro_range+0x20>
     30e:	7c8b      	ldrb	r3, [r1, #18]
     310:	429a      	cmp	r2, r3
     312:	d00c      	beq.n	32e <process_gyro_range+0x26>
     314:	7803      	ldrb	r3, [r0, #0]
     316:	2107      	movs	r1, #7
     318:	438b      	bics	r3, r1
     31a:	0019      	movs	r1, r3
     31c:	2307      	movs	r3, #7
     31e:	4013      	ands	r3, r2
     320:	430b      	orrs	r3, r1
     322:	7003      	strb	r3, [r0, #0]
     324:	2000      	movs	r0, #0
     326:	4770      	bx	lr
     328:	2004      	movs	r0, #4
     32a:	4240      	negs	r0, r0
     32c:	e7fb      	b.n	326 <process_gyro_range+0x1e>
     32e:	2000      	movs	r0, #0
     330:	e7f9      	b.n	326 <process_gyro_range+0x1e>

00000332 <bmi160_get_regs>:
     332:	b570      	push	{r4, r5, r6, lr}
     334:	0006      	movs	r6, r0
     336:	1e1c      	subs	r4, r3, #0
     338:	d017      	beq.n	36a <bmi160_get_regs+0x38>
     33a:	69dd      	ldr	r5, [r3, #28]
     33c:	2d00      	cmp	r5, #0
     33e:	d017      	beq.n	370 <bmi160_get_regs+0x3e>
     340:	789b      	ldrb	r3, [r3, #2]
     342:	2b01      	cmp	r3, #1
     344:	d00c      	beq.n	360 <bmi160_get_regs+0x2e>
     346:	7860      	ldrb	r0, [r4, #1]
     348:	0013      	movs	r3, r2
     34a:	000a      	movs	r2, r1
     34c:	0031      	movs	r1, r6
     34e:	47a8      	blx	r5
     350:	0005      	movs	r5, r0
     352:	6a63      	ldr	r3, [r4, #36]	; 0x24
     354:	2001      	movs	r0, #1
     356:	4798      	blx	r3
     358:	2d00      	cmp	r5, #0
     35a:	d10c      	bne.n	376 <bmi160_get_regs+0x44>
     35c:	0028      	movs	r0, r5
     35e:	bd70      	pop	{r4, r5, r6, pc}
     360:	2080      	movs	r0, #128	; 0x80
     362:	4240      	negs	r0, r0
     364:	4306      	orrs	r6, r0
     366:	b2f6      	uxtb	r6, r6
     368:	e7ed      	b.n	346 <bmi160_get_regs+0x14>
     36a:	2501      	movs	r5, #1
     36c:	426d      	negs	r5, r5
     36e:	e7f5      	b.n	35c <bmi160_get_regs+0x2a>
     370:	2501      	movs	r5, #1
     372:	426d      	negs	r5, r5
     374:	e7f2      	b.n	35c <bmi160_get_regs+0x2a>
     376:	2502      	movs	r5, #2
     378:	426d      	negs	r5, r5
     37a:	e7ef      	b.n	35c <bmi160_get_regs+0x2a>

0000037c <check_accel_config>:
     37c:	b570      	push	{r4, r5, r6, lr}
     37e:	0004      	movs	r4, r0
     380:	000d      	movs	r5, r1
     382:	000b      	movs	r3, r1
     384:	2202      	movs	r2, #2
     386:	0001      	movs	r1, r0
     388:	2040      	movs	r0, #64	; 0x40
     38a:	4e0b      	ldr	r6, [pc, #44]	; (3b8 <check_accel_config+0x3c>)
     38c:	47b0      	blx	r6
     38e:	2800      	cmp	r0, #0
     390:	d000      	beq.n	394 <check_accel_config+0x18>
     392:	bd70      	pop	{r4, r5, r6, pc}
     394:	0029      	movs	r1, r5
     396:	0020      	movs	r0, r4
     398:	4b08      	ldr	r3, [pc, #32]	; (3bc <check_accel_config+0x40>)
     39a:	4798      	blx	r3
     39c:	2800      	cmp	r0, #0
     39e:	d1f8      	bne.n	392 <check_accel_config+0x16>
     3a0:	0029      	movs	r1, r5
     3a2:	0020      	movs	r0, r4
     3a4:	4b06      	ldr	r3, [pc, #24]	; (3c0 <check_accel_config+0x44>)
     3a6:	4798      	blx	r3
     3a8:	2800      	cmp	r0, #0
     3aa:	d1f2      	bne.n	392 <check_accel_config+0x16>
     3ac:	1c60      	adds	r0, r4, #1
     3ae:	0029      	movs	r1, r5
     3b0:	4b04      	ldr	r3, [pc, #16]	; (3c4 <check_accel_config+0x48>)
     3b2:	4798      	blx	r3
     3b4:	e7ed      	b.n	392 <check_accel_config+0x16>
     3b6:	46c0      	nop			; (mov r8, r8)
     3b8:	00000333 	.word	0x00000333
     3bc:	00000249 	.word	0x00000249
     3c0:	00000273 	.word	0x00000273
     3c4:	00000295 	.word	0x00000295

000003c8 <check_gyro_config>:
     3c8:	b570      	push	{r4, r5, r6, lr}
     3ca:	0004      	movs	r4, r0
     3cc:	000d      	movs	r5, r1
     3ce:	000b      	movs	r3, r1
     3d0:	2202      	movs	r2, #2
     3d2:	0001      	movs	r1, r0
     3d4:	2042      	movs	r0, #66	; 0x42
     3d6:	4e0b      	ldr	r6, [pc, #44]	; (404 <check_gyro_config+0x3c>)
     3d8:	47b0      	blx	r6
     3da:	2800      	cmp	r0, #0
     3dc:	d000      	beq.n	3e0 <check_gyro_config+0x18>
     3de:	bd70      	pop	{r4, r5, r6, pc}
     3e0:	0029      	movs	r1, r5
     3e2:	0020      	movs	r0, r4
     3e4:	4b08      	ldr	r3, [pc, #32]	; (408 <check_gyro_config+0x40>)
     3e6:	4798      	blx	r3
     3e8:	2800      	cmp	r0, #0
     3ea:	d1f8      	bne.n	3de <check_gyro_config+0x16>
     3ec:	0029      	movs	r1, r5
     3ee:	0020      	movs	r0, r4
     3f0:	4b06      	ldr	r3, [pc, #24]	; (40c <check_gyro_config+0x44>)
     3f2:	4798      	blx	r3
     3f4:	2800      	cmp	r0, #0
     3f6:	d1f2      	bne.n	3de <check_gyro_config+0x16>
     3f8:	1c60      	adds	r0, r4, #1
     3fa:	0029      	movs	r1, r5
     3fc:	4b04      	ldr	r3, [pc, #16]	; (410 <check_gyro_config+0x48>)
     3fe:	4798      	blx	r3
     400:	e7ed      	b.n	3de <check_gyro_config+0x16>
     402:	46c0      	nop			; (mov r8, r8)
     404:	00000333 	.word	0x00000333
     408:	000002bf 	.word	0x000002bf
     40c:	000002e9 	.word	0x000002e9
     410:	00000309 	.word	0x00000309

00000414 <check_invalid_settg>:
     414:	b530      	push	{r4, r5, lr}
     416:	b083      	sub	sp, #12
     418:	0003      	movs	r3, r0
     41a:	466a      	mov	r2, sp
     41c:	1dd4      	adds	r4, r2, #7
     41e:	2200      	movs	r2, #0
     420:	7022      	strb	r2, [r4, #0]
     422:	3201      	adds	r2, #1
     424:	0021      	movs	r1, r4
     426:	2002      	movs	r0, #2
     428:	4d0d      	ldr	r5, [pc, #52]	; (460 <check_invalid_settg+0x4c>)
     42a:	47a8      	blx	r5
     42c:	7822      	ldrb	r2, [r4, #0]
     42e:	0852      	lsrs	r2, r2, #1
     430:	230f      	movs	r3, #15
     432:	4013      	ands	r3, r2
     434:	2b01      	cmp	r3, #1
     436:	d007      	beq.n	448 <check_invalid_settg+0x34>
     438:	2b02      	cmp	r3, #2
     43a:	d008      	beq.n	44e <check_invalid_settg+0x3a>
     43c:	2b03      	cmp	r3, #3
     43e:	d009      	beq.n	454 <check_invalid_settg+0x40>
     440:	2b07      	cmp	r3, #7
     442:	d00a      	beq.n	45a <check_invalid_settg+0x46>
     444:	b003      	add	sp, #12
     446:	bd30      	pop	{r4, r5, pc}
     448:	2006      	movs	r0, #6
     44a:	4240      	negs	r0, r0
     44c:	e7fa      	b.n	444 <check_invalid_settg+0x30>
     44e:	2007      	movs	r0, #7
     450:	4240      	negs	r0, r0
     452:	e7f7      	b.n	444 <check_invalid_settg+0x30>
     454:	2008      	movs	r0, #8
     456:	4240      	negs	r0, r0
     458:	e7f4      	b.n	444 <check_invalid_settg+0x30>
     45a:	2009      	movs	r0, #9
     45c:	4240      	negs	r0, r0
     45e:	e7f1      	b.n	444 <check_invalid_settg+0x30>
     460:	00000333 	.word	0x00000333

00000464 <bmi160_set_regs>:
     464:	b5f8      	push	{r3, r4, r5, r6, r7, lr}
     466:	46ce      	mov	lr, r9
     468:	4647      	mov	r7, r8
     46a:	b580      	push	{r7, lr}
     46c:	0006      	movs	r6, r0
     46e:	4689      	mov	r9, r1
     470:	4690      	mov	r8, r2
     472:	1e1f      	subs	r7, r3, #0
     474:	d035      	beq.n	4e2 <bmi160_set_regs+0x7e>
     476:	6a1c      	ldr	r4, [r3, #32]
     478:	2c00      	cmp	r4, #0
     47a:	d036      	beq.n	4ea <bmi160_set_regs+0x86>
     47c:	789b      	ldrb	r3, [r3, #2]
     47e:	2b01      	cmp	r3, #1
     480:	d009      	beq.n	496 <bmi160_set_regs+0x32>
     482:	7a3b      	ldrb	r3, [r7, #8]
     484:	2b11      	cmp	r3, #17
     486:	d009      	beq.n	49c <bmi160_set_regs+0x38>
     488:	7c3b      	ldrb	r3, [r7, #16]
     48a:	2b15      	cmp	r3, #21
     48c:	d006      	beq.n	49c <bmi160_set_regs+0x38>
     48e:	2400      	movs	r4, #0
     490:	2300      	movs	r3, #0
     492:	001d      	movs	r5, r3
     494:	e01b      	b.n	4ce <bmi160_set_regs+0x6a>
     496:	337e      	adds	r3, #126	; 0x7e
     498:	401e      	ands	r6, r3
     49a:	e7f2      	b.n	482 <bmi160_set_regs+0x1e>
     49c:	7878      	ldrb	r0, [r7, #1]
     49e:	4643      	mov	r3, r8
     4a0:	464a      	mov	r2, r9
     4a2:	0031      	movs	r1, r6
     4a4:	47a0      	blx	r4
     4a6:	0005      	movs	r5, r0
     4a8:	6a7b      	ldr	r3, [r7, #36]	; 0x24
     4aa:	2001      	movs	r0, #1
     4ac:	4798      	blx	r3
     4ae:	e011      	b.n	4d4 <bmi160_set_regs+0x70>
     4b0:	7878      	ldrb	r0, [r7, #1]
     4b2:	464b      	mov	r3, r9
     4b4:	191a      	adds	r2, r3, r4
     4b6:	2301      	movs	r3, #1
     4b8:	0031      	movs	r1, r6
     4ba:	6a3d      	ldr	r5, [r7, #32]
     4bc:	47a8      	blx	r5
     4be:	0005      	movs	r5, r0
     4c0:	3601      	adds	r6, #1
     4c2:	b2f6      	uxtb	r6, r6
     4c4:	2001      	movs	r0, #1
     4c6:	6a7b      	ldr	r3, [r7, #36]	; 0x24
     4c8:	4798      	blx	r3
     4ca:	3401      	adds	r4, #1
     4cc:	b2e4      	uxtb	r4, r4
     4ce:	b2a3      	uxth	r3, r4
     4d0:	4543      	cmp	r3, r8
     4d2:	d3ed      	bcc.n	4b0 <bmi160_set_regs+0x4c>
     4d4:	2d00      	cmp	r5, #0
     4d6:	d10c      	bne.n	4f2 <bmi160_set_regs+0x8e>
     4d8:	0028      	movs	r0, r5
     4da:	bc0c      	pop	{r2, r3}
     4dc:	4690      	mov	r8, r2
     4de:	4699      	mov	r9, r3
     4e0:	bdf8      	pop	{r3, r4, r5, r6, r7, pc}
     4e2:	2301      	movs	r3, #1
     4e4:	425b      	negs	r3, r3
     4e6:	001d      	movs	r5, r3
     4e8:	e7f6      	b.n	4d8 <bmi160_set_regs+0x74>
     4ea:	2301      	movs	r3, #1
     4ec:	425b      	negs	r3, r3
     4ee:	001d      	movs	r5, r3
     4f0:	e7f2      	b.n	4d8 <bmi160_set_regs+0x74>
     4f2:	2302      	movs	r3, #2
     4f4:	425b      	negs	r3, r3
     4f6:	001d      	movs	r5, r3
     4f8:	e7ee      	b.n	4d8 <bmi160_set_regs+0x74>
	...

000004fc <set_accel_conf>:
     4fc:	b530      	push	{r4, r5, lr}
     4fe:	b083      	sub	sp, #12
     500:	0004      	movs	r4, r0
     502:	a801      	add	r0, sp, #4
     504:	2300      	movs	r3, #0
     506:	8003      	strh	r3, [r0, #0]
     508:	0021      	movs	r1, r4
     50a:	4b10      	ldr	r3, [pc, #64]	; (54c <set_accel_conf+0x50>)
     50c:	4798      	blx	r3
     50e:	2800      	cmp	r0, #0
     510:	d001      	beq.n	516 <set_accel_conf+0x1a>
     512:	b003      	add	sp, #12
     514:	bd30      	pop	{r4, r5, pc}
     516:	0023      	movs	r3, r4
     518:	2201      	movs	r2, #1
     51a:	a901      	add	r1, sp, #4
     51c:	3040      	adds	r0, #64	; 0x40
     51e:	4d0c      	ldr	r5, [pc, #48]	; (550 <set_accel_conf+0x54>)
     520:	47a8      	blx	r5
     522:	2800      	cmp	r0, #0
     524:	d1f5      	bne.n	512 <set_accel_conf+0x16>
     526:	7963      	ldrb	r3, [r4, #5]
     528:	7263      	strb	r3, [r4, #9]
     52a:	79e3      	ldrb	r3, [r4, #7]
     52c:	72e3      	strb	r3, [r4, #11]
     52e:	3001      	adds	r0, #1
     530:	6a63      	ldr	r3, [r4, #36]	; 0x24
     532:	4798      	blx	r3
     534:	0023      	movs	r3, r4
     536:	2201      	movs	r2, #1
     538:	4669      	mov	r1, sp
     53a:	3105      	adds	r1, #5
     53c:	2041      	movs	r0, #65	; 0x41
     53e:	4d04      	ldr	r5, [pc, #16]	; (550 <set_accel_conf+0x54>)
     540:	47a8      	blx	r5
     542:	2800      	cmp	r0, #0
     544:	d1e5      	bne.n	512 <set_accel_conf+0x16>
     546:	79a3      	ldrb	r3, [r4, #6]
     548:	72a3      	strb	r3, [r4, #10]
     54a:	e7e2      	b.n	512 <set_accel_conf+0x16>
     54c:	0000037d 	.word	0x0000037d
     550:	00000465 	.word	0x00000465

00000554 <set_gyro_conf>:
     554:	b530      	push	{r4, r5, lr}
     556:	b083      	sub	sp, #12
     558:	0004      	movs	r4, r0
     55a:	a801      	add	r0, sp, #4
     55c:	2300      	movs	r3, #0
     55e:	8003      	strh	r3, [r0, #0]
     560:	0021      	movs	r1, r4
     562:	4b10      	ldr	r3, [pc, #64]	; (5a4 <set_gyro_conf+0x50>)
     564:	4798      	blx	r3
     566:	2800      	cmp	r0, #0
     568:	d001      	beq.n	56e <set_gyro_conf+0x1a>
     56a:	b003      	add	sp, #12
     56c:	bd30      	pop	{r4, r5, pc}
     56e:	0023      	movs	r3, r4
     570:	2201      	movs	r2, #1
     572:	a901      	add	r1, sp, #4
     574:	3042      	adds	r0, #66	; 0x42
     576:	4d0c      	ldr	r5, [pc, #48]	; (5a8 <set_gyro_conf+0x54>)
     578:	47a8      	blx	r5
     57a:	2800      	cmp	r0, #0
     57c:	d1f5      	bne.n	56a <set_gyro_conf+0x16>
     57e:	7b63      	ldrb	r3, [r4, #13]
     580:	7463      	strb	r3, [r4, #17]
     582:	7be3      	ldrb	r3, [r4, #15]
     584:	74e3      	strb	r3, [r4, #19]
     586:	3001      	adds	r0, #1
     588:	6a63      	ldr	r3, [r4, #36]	; 0x24
     58a:	4798      	blx	r3
     58c:	0023      	movs	r3, r4
     58e:	2201      	movs	r2, #1
     590:	4669      	mov	r1, sp
     592:	3105      	adds	r1, #5
     594:	2043      	movs	r0, #67	; 0x43
     596:	4d04      	ldr	r5, [pc, #16]	; (5a8 <set_gyro_conf+0x54>)
     598:	47a8      	blx	r5
     59a:	2800      	cmp	r0, #0
     59c:	d1e5      	bne.n	56a <set_gyro_conf+0x16>
     59e:	7ba3      	ldrb	r3, [r4, #14]
     5a0:	74a3      	strb	r3, [r4, #18]
     5a2:	e7e2      	b.n	56a <set_gyro_conf+0x16>
     5a4:	000003c9 	.word	0x000003c9
     5a8:	00000465 	.word	0x00000465

000005ac <process_under_sampling>:
     5ac:	b570      	push	{r4, r5, r6, lr}
     5ae:	b082      	sub	sp, #8
     5b0:	0005      	movs	r5, r0
     5b2:	000c      	movs	r4, r1
     5b4:	2200      	movs	r2, #0
     5b6:	466b      	mov	r3, sp
     5b8:	71da      	strb	r2, [r3, #7]
     5ba:	000b      	movs	r3, r1
     5bc:	3201      	adds	r2, #1
     5be:	0001      	movs	r1, r0
     5c0:	2040      	movs	r0, #64	; 0x40
     5c2:	4e16      	ldr	r6, [pc, #88]	; (61c <process_under_sampling+0x70>)
     5c4:	47b0      	blx	r6
     5c6:	2800      	cmp	r0, #0
     5c8:	d106      	bne.n	5d8 <process_under_sampling+0x2c>
     5ca:	7923      	ldrb	r3, [r4, #4]
     5cc:	2b12      	cmp	r3, #18
     5ce:	d005      	beq.n	5dc <process_under_sampling+0x30>
     5d0:	782b      	ldrb	r3, [r5, #0]
     5d2:	b25a      	sxtb	r2, r3
     5d4:	2a00      	cmp	r2, #0
     5d6:	db17      	blt.n	608 <process_under_sampling+0x5c>
     5d8:	b002      	add	sp, #8
     5da:	bd70      	pop	{r4, r5, r6, pc}
     5dc:	782a      	ldrb	r2, [r5, #0]
     5de:	336d      	adds	r3, #109	; 0x6d
     5e0:	401a      	ands	r2, r3
     5e2:	3bff      	subs	r3, #255	; 0xff
     5e4:	4313      	orrs	r3, r2
     5e6:	702b      	strb	r3, [r5, #0]
     5e8:	0023      	movs	r3, r4
     5ea:	2201      	movs	r2, #1
     5ec:	0029      	movs	r1, r5
     5ee:	3040      	adds	r0, #64	; 0x40
     5f0:	4d0b      	ldr	r5, [pc, #44]	; (620 <process_under_sampling+0x74>)
     5f2:	47a8      	blx	r5
     5f4:	2800      	cmp	r0, #0
     5f6:	d1ef      	bne.n	5d8 <process_under_sampling+0x2c>
     5f8:	0023      	movs	r3, r4
     5fa:	2202      	movs	r2, #2
     5fc:	4669      	mov	r1, sp
     5fe:	3107      	adds	r1, #7
     600:	3058      	adds	r0, #88	; 0x58
     602:	4c07      	ldr	r4, [pc, #28]	; (620 <process_under_sampling+0x74>)
     604:	47a0      	blx	r4
     606:	e7e7      	b.n	5d8 <process_under_sampling+0x2c>
     608:	227f      	movs	r2, #127	; 0x7f
     60a:	4013      	ands	r3, r2
     60c:	702b      	strb	r3, [r5, #0]
     60e:	0023      	movs	r3, r4
     610:	3a7e      	subs	r2, #126	; 0x7e
     612:	0029      	movs	r1, r5
     614:	2040      	movs	r0, #64	; 0x40
     616:	4c02      	ldr	r4, [pc, #8]	; (620 <process_under_sampling+0x74>)
     618:	47a0      	blx	r4
     61a:	e7dd      	b.n	5d8 <process_under_sampling+0x2c>
     61c:	00000333 	.word	0x00000333
     620:	00000465 	.word	0x00000465

00000624 <set_accel_pwr>:
     624:	b530      	push	{r4, r5, lr}
     626:	b083      	sub	sp, #12
     628:	0004      	movs	r4, r0
     62a:	2200      	movs	r2, #0
     62c:	466b      	mov	r3, sp
     62e:	71da      	strb	r2, [r3, #7]
     630:	7902      	ldrb	r2, [r0, #4]
     632:	0013      	movs	r3, r2
     634:	3b10      	subs	r3, #16
     636:	b2db      	uxtb	r3, r3
     638:	2b02      	cmp	r3, #2
     63a:	d81d      	bhi.n	678 <set_accel_pwr+0x54>
     63c:	7a03      	ldrb	r3, [r0, #8]
     63e:	429a      	cmp	r2, r3
     640:	d01d      	beq.n	67e <set_accel_pwr+0x5a>
     642:	0001      	movs	r1, r0
     644:	466b      	mov	r3, sp
     646:	1dd8      	adds	r0, r3, #7
     648:	4b0e      	ldr	r3, [pc, #56]	; (684 <set_accel_pwr+0x60>)
     64a:	4798      	blx	r3
     64c:	1e05      	subs	r5, r0, #0
     64e:	d002      	beq.n	656 <set_accel_pwr+0x32>
     650:	0028      	movs	r0, r5
     652:	b003      	add	sp, #12
     654:	bd30      	pop	{r4, r5, pc}
     656:	1d21      	adds	r1, r4, #4
     658:	0023      	movs	r3, r4
     65a:	2201      	movs	r2, #1
     65c:	207e      	movs	r0, #126	; 0x7e
     65e:	4d0a      	ldr	r5, [pc, #40]	; (688 <set_accel_pwr+0x64>)
     660:	47a8      	blx	r5
     662:	0005      	movs	r5, r0
     664:	7a23      	ldrb	r3, [r4, #8]
     666:	2b10      	cmp	r3, #16
     668:	d002      	beq.n	670 <set_accel_pwr+0x4c>
     66a:	7923      	ldrb	r3, [r4, #4]
     66c:	7223      	strb	r3, [r4, #8]
     66e:	e7ef      	b.n	650 <set_accel_pwr+0x2c>
     670:	2005      	movs	r0, #5
     672:	6a63      	ldr	r3, [r4, #36]	; 0x24
     674:	4798      	blx	r3
     676:	e7f8      	b.n	66a <set_accel_pwr+0x46>
     678:	2504      	movs	r5, #4
     67a:	426d      	negs	r5, r5
     67c:	e7e8      	b.n	650 <set_accel_pwr+0x2c>
     67e:	2500      	movs	r5, #0
     680:	e7e6      	b.n	650 <set_accel_pwr+0x2c>
     682:	46c0      	nop			; (mov r8, r8)
     684:	000005ad 	.word	0x000005ad
     688:	00000465 	.word	0x00000465

0000068c <set_gyro_pwr>:
     68c:	b570      	push	{r4, r5, r6, lr}
     68e:	0004      	movs	r4, r0
     690:	7b02      	ldrb	r2, [r0, #12]
     692:	0013      	movs	r3, r2
     694:	3b14      	subs	r3, #20
     696:	b2db      	uxtb	r3, r3
     698:	2b01      	cmp	r3, #1
     69a:	d901      	bls.n	6a0 <set_gyro_pwr+0x14>
     69c:	2a17      	cmp	r2, #23
     69e:	d11e      	bne.n	6de <set_gyro_pwr+0x52>
     6a0:	7c23      	ldrb	r3, [r4, #16]
     6a2:	429a      	cmp	r2, r3
     6a4:	d01e      	beq.n	6e4 <set_gyro_pwr+0x58>
     6a6:	0021      	movs	r1, r4
     6a8:	310c      	adds	r1, #12
     6aa:	0023      	movs	r3, r4
     6ac:	2201      	movs	r2, #1
     6ae:	207e      	movs	r0, #126	; 0x7e
     6b0:	4d0d      	ldr	r5, [pc, #52]	; (6e8 <set_gyro_pwr+0x5c>)
     6b2:	47a8      	blx	r5
     6b4:	0005      	movs	r5, r0
     6b6:	7c23      	ldrb	r3, [r4, #16]
     6b8:	2b14      	cmp	r3, #20
     6ba:	d005      	beq.n	6c8 <set_gyro_pwr+0x3c>
     6bc:	2b17      	cmp	r3, #23
     6be:	d007      	beq.n	6d0 <set_gyro_pwr+0x44>
     6c0:	7b23      	ldrb	r3, [r4, #12]
     6c2:	7423      	strb	r3, [r4, #16]
     6c4:	0028      	movs	r0, r5
     6c6:	bd70      	pop	{r4, r5, r6, pc}
     6c8:	2051      	movs	r0, #81	; 0x51
     6ca:	6a63      	ldr	r3, [r4, #36]	; 0x24
     6cc:	4798      	blx	r3
     6ce:	e7f7      	b.n	6c0 <set_gyro_pwr+0x34>
     6d0:	7b23      	ldrb	r3, [r4, #12]
     6d2:	2b15      	cmp	r3, #21
     6d4:	d1f4      	bne.n	6c0 <set_gyro_pwr+0x34>
     6d6:	200a      	movs	r0, #10
     6d8:	6a63      	ldr	r3, [r4, #36]	; 0x24
     6da:	4798      	blx	r3
     6dc:	e7f0      	b.n	6c0 <set_gyro_pwr+0x34>
     6de:	2504      	movs	r5, #4
     6e0:	426d      	negs	r5, r5
     6e2:	e7ef      	b.n	6c4 <set_gyro_pwr+0x38>
     6e4:	2500      	movs	r5, #0
     6e6:	e7ed      	b.n	6c4 <set_gyro_pwr+0x38>
     6e8:	00000465 	.word	0x00000465

000006ec <bmi160_soft_reset>:
     6ec:	b530      	push	{r4, r5, lr}
     6ee:	b083      	sub	sp, #12
     6f0:	0005      	movs	r5, r0
     6f2:	22b6      	movs	r2, #182	; 0xb6
     6f4:	466b      	mov	r3, sp
     6f6:	71da      	strb	r2, [r3, #7]
     6f8:	2800      	cmp	r0, #0
     6fa:	d024      	beq.n	746 <bmi160_soft_reset+0x5a>
     6fc:	6a43      	ldr	r3, [r0, #36]	; 0x24
     6fe:	2b00      	cmp	r3, #0
     700:	d024      	beq.n	74c <bmi160_soft_reset+0x60>
     702:	0003      	movs	r3, r0
     704:	3ab5      	subs	r2, #181	; 0xb5
     706:	4669      	mov	r1, sp
     708:	3107      	adds	r1, #7
     70a:	207e      	movs	r0, #126	; 0x7e
     70c:	4c11      	ldr	r4, [pc, #68]	; (754 <bmi160_soft_reset+0x68>)
     70e:	47a0      	blx	r4
     710:	0004      	movs	r4, r0
     712:	200f      	movs	r0, #15
     714:	6a6b      	ldr	r3, [r5, #36]	; 0x24
     716:	4798      	blx	r3
     718:	2c00      	cmp	r4, #0
     71a:	d102      	bne.n	722 <bmi160_soft_reset+0x36>
     71c:	78ab      	ldrb	r3, [r5, #2]
     71e:	2b01      	cmp	r3, #1
     720:	d004      	beq.n	72c <bmi160_soft_reset+0x40>
     722:	2c00      	cmp	r4, #0
     724:	d00b      	beq.n	73e <bmi160_soft_reset+0x52>
     726:	0020      	movs	r0, r4
     728:	b003      	add	sp, #12
     72a:	bd30      	pop	{r4, r5, pc}
     72c:	002b      	movs	r3, r5
     72e:	2201      	movs	r2, #1
     730:	4669      	mov	r1, sp
     732:	3107      	adds	r1, #7
     734:	207f      	movs	r0, #127	; 0x7f
     736:	4c08      	ldr	r4, [pc, #32]	; (758 <bmi160_soft_reset+0x6c>)
     738:	47a0      	blx	r4
     73a:	0004      	movs	r4, r0
     73c:	e7f1      	b.n	722 <bmi160_soft_reset+0x36>
     73e:	0028      	movs	r0, r5
     740:	4b06      	ldr	r3, [pc, #24]	; (75c <bmi160_soft_reset+0x70>)
     742:	4798      	blx	r3
     744:	e7ef      	b.n	726 <bmi160_soft_reset+0x3a>
     746:	2401      	movs	r4, #1
     748:	4264      	negs	r4, r4
     74a:	e7ec      	b.n	726 <bmi160_soft_reset+0x3a>
     74c:	2401      	movs	r4, #1
     74e:	4264      	negs	r4, r4
     750:	e7e9      	b.n	726 <bmi160_soft_reset+0x3a>
     752:	46c0      	nop			; (mov r8, r8)
     754:	00000465 	.word	0x00000465
     758:	00000333 	.word	0x00000333
     75c:	00000223 	.word	0x00000223

00000760 <bmi160_init>:
     760:	b530      	push	{r4, r5, lr}
     762:	b083      	sub	sp, #12
     764:	0004      	movs	r4, r0
     766:	4b16      	ldr	r3, [pc, #88]	; (7c0 <bmi160_init+0x60>)
     768:	4798      	blx	r3
     76a:	2800      	cmp	r0, #0
     76c:	d102      	bne.n	774 <bmi160_init+0x14>
     76e:	78a3      	ldrb	r3, [r4, #2]
     770:	2b01      	cmp	r3, #1
     772:	d003      	beq.n	77c <bmi160_init+0x1c>
     774:	2800      	cmp	r0, #0
     776:	d009      	beq.n	78c <bmi160_init+0x2c>
     778:	b003      	add	sp, #12
     77a:	bd30      	pop	{r4, r5, pc}
     77c:	0023      	movs	r3, r4
     77e:	2201      	movs	r2, #1
     780:	4669      	mov	r1, sp
     782:	3107      	adds	r1, #7
     784:	307f      	adds	r0, #127	; 0x7f
     786:	4d0f      	ldr	r5, [pc, #60]	; (7c4 <bmi160_init+0x64>)
     788:	47a8      	blx	r5
     78a:	e7f3      	b.n	774 <bmi160_init+0x14>
     78c:	0023      	movs	r3, r4
     78e:	2201      	movs	r2, #1
     790:	4669      	mov	r1, sp
     792:	3106      	adds	r1, #6
     794:	4d0b      	ldr	r5, [pc, #44]	; (7c4 <bmi160_init+0x64>)
     796:	47a8      	blx	r5
     798:	2800      	cmp	r0, #0
     79a:	d10b      	bne.n	7b4 <bmi160_init+0x54>
     79c:	466b      	mov	r3, sp
     79e:	3306      	adds	r3, #6
     7a0:	781b      	ldrb	r3, [r3, #0]
     7a2:	2bd1      	cmp	r3, #209	; 0xd1
     7a4:	d109      	bne.n	7ba <bmi160_init+0x5a>
     7a6:	7023      	strb	r3, [r4, #0]
     7a8:	332e      	adds	r3, #46	; 0x2e
     7aa:	70e3      	strb	r3, [r4, #3]
     7ac:	0020      	movs	r0, r4
     7ae:	4b06      	ldr	r3, [pc, #24]	; (7c8 <bmi160_init+0x68>)
     7b0:	4798      	blx	r3
     7b2:	e7e1      	b.n	778 <bmi160_init+0x18>
     7b4:	2003      	movs	r0, #3
     7b6:	4240      	negs	r0, r0
     7b8:	e7de      	b.n	778 <bmi160_init+0x18>
     7ba:	2003      	movs	r0, #3
     7bc:	4240      	negs	r0, r0
     7be:	e7db      	b.n	778 <bmi160_init+0x18>
     7c0:	000001f1 	.word	0x000001f1
     7c4:	00000333 	.word	0x00000333
     7c8:	000006ed 	.word	0x000006ed

000007cc <bmi160_set_power_mode>:
     7cc:	b510      	push	{r4, lr}
     7ce:	1e04      	subs	r4, r0, #0
     7d0:	d00b      	beq.n	7ea <bmi160_set_power_mode+0x1e>
     7d2:	6a43      	ldr	r3, [r0, #36]	; 0x24
     7d4:	2b00      	cmp	r3, #0
     7d6:	d00b      	beq.n	7f0 <bmi160_set_power_mode+0x24>
     7d8:	4b07      	ldr	r3, [pc, #28]	; (7f8 <bmi160_set_power_mode+0x2c>)
     7da:	4798      	blx	r3
     7dc:	2800      	cmp	r0, #0
     7de:	d000      	beq.n	7e2 <bmi160_set_power_mode+0x16>
     7e0:	bd10      	pop	{r4, pc}
     7e2:	0020      	movs	r0, r4
     7e4:	4b05      	ldr	r3, [pc, #20]	; (7fc <bmi160_set_power_mode+0x30>)
     7e6:	4798      	blx	r3
     7e8:	e7fa      	b.n	7e0 <bmi160_set_power_mode+0x14>
     7ea:	2001      	movs	r0, #1
     7ec:	4240      	negs	r0, r0
     7ee:	e7f7      	b.n	7e0 <bmi160_set_power_mode+0x14>
     7f0:	2001      	movs	r0, #1
     7f2:	4240      	negs	r0, r0
     7f4:	e7f4      	b.n	7e0 <bmi160_set_power_mode+0x14>
     7f6:	46c0      	nop			; (mov r8, r8)
     7f8:	00000625 	.word	0x00000625
     7fc:	0000068d 	.word	0x0000068d

00000800 <bmi160_set_sens_conf>:
     800:	b510      	push	{r4, lr}
     802:	1e04      	subs	r4, r0, #0
     804:	d015      	beq.n	832 <bmi160_set_sens_conf+0x32>
     806:	6a43      	ldr	r3, [r0, #36]	; 0x24
     808:	2b00      	cmp	r3, #0
     80a:	d015      	beq.n	838 <bmi160_set_sens_conf+0x38>
     80c:	4b0c      	ldr	r3, [pc, #48]	; (840 <bmi160_set_sens_conf+0x40>)
     80e:	4798      	blx	r3
     810:	2800      	cmp	r0, #0
     812:	d000      	beq.n	816 <bmi160_set_sens_conf+0x16>
     814:	bd10      	pop	{r4, pc}
     816:	0020      	movs	r0, r4
     818:	4b0a      	ldr	r3, [pc, #40]	; (844 <bmi160_set_sens_conf+0x44>)
     81a:	4798      	blx	r3
     81c:	2800      	cmp	r0, #0
     81e:	d1f9      	bne.n	814 <bmi160_set_sens_conf+0x14>
     820:	0020      	movs	r0, r4
     822:	4b09      	ldr	r3, [pc, #36]	; (848 <bmi160_set_sens_conf+0x48>)
     824:	4798      	blx	r3
     826:	2800      	cmp	r0, #0
     828:	d1f4      	bne.n	814 <bmi160_set_sens_conf+0x14>
     82a:	0020      	movs	r0, r4
     82c:	4b07      	ldr	r3, [pc, #28]	; (84c <bmi160_set_sens_conf+0x4c>)
     82e:	4798      	blx	r3
     830:	e7f0      	b.n	814 <bmi160_set_sens_conf+0x14>
     832:	2001      	movs	r0, #1
     834:	4240      	negs	r0, r0
     836:	e7ed      	b.n	814 <bmi160_set_sens_conf+0x14>
     838:	2001      	movs	r0, #1
     83a:	4240      	negs	r0, r0
     83c:	e7ea      	b.n	814 <bmi160_set_sens_conf+0x14>
     83e:	46c0      	nop			; (mov r8, r8)
     840:	000004fd 	.word	0x000004fd
     844:	00000555 	.word	0x00000555
     848:	000007cd 	.word	0x000007cd
     84c:	00000415 	.word	0x00000415

00000850 <Dummy_Handler>:
     850:	e7fe      	b.n	850 <Dummy_Handler>
	...

00000854 <Reset_Handler>:
     854:	b5f8      	push	{r3, r4, r5, r6, r7, lr}
     856:	4a23      	ldr	r2, [pc, #140]	; (8e4 <Reset_Handler+0x90>)
     858:	4b23      	ldr	r3, [pc, #140]	; (8e8 <Reset_Handler+0x94>)
     85a:	429a      	cmp	r2, r3
     85c:	d009      	beq.n	872 <Reset_Handler+0x1e>
     85e:	4b22      	ldr	r3, [pc, #136]	; (8e8 <Reset_Handler+0x94>)
     860:	4a20      	ldr	r2, [pc, #128]	; (8e4 <Reset_Handler+0x90>)
     862:	e003      	b.n	86c <Reset_Handler+0x18>
     864:	6811      	ldr	r1, [r2, #0]
     866:	6019      	str	r1, [r3, #0]
     868:	3304      	adds	r3, #4
     86a:	3204      	adds	r2, #4
     86c:	491f      	ldr	r1, [pc, #124]	; (8ec <Reset_Handler+0x98>)
     86e:	428b      	cmp	r3, r1
     870:	d3f8      	bcc.n	864 <Reset_Handler+0x10>
     872:	4b1f      	ldr	r3, [pc, #124]	; (8f0 <Reset_Handler+0x9c>)
     874:	e002      	b.n	87c <Reset_Handler+0x28>
     876:	2200      	movs	r2, #0
     878:	601a      	str	r2, [r3, #0]
     87a:	3304      	adds	r3, #4
     87c:	4a1d      	ldr	r2, [pc, #116]	; (8f4 <Reset_Handler+0xa0>)
     87e:	4293      	cmp	r3, r2
     880:	d3f9      	bcc.n	876 <Reset_Handler+0x22>
     882:	4a1d      	ldr	r2, [pc, #116]	; (8f8 <Reset_Handler+0xa4>)
     884:	21ff      	movs	r1, #255	; 0xff
     886:	4b1d      	ldr	r3, [pc, #116]	; (8fc <Reset_Handler+0xa8>)
     888:	438b      	bics	r3, r1
     88a:	6093      	str	r3, [r2, #8]
     88c:	39fd      	subs	r1, #253	; 0xfd
     88e:	2390      	movs	r3, #144	; 0x90
     890:	005b      	lsls	r3, r3, #1
     892:	4a1b      	ldr	r2, [pc, #108]	; (900 <Reset_Handler+0xac>)
     894:	50d1      	str	r1, [r2, r3]
     896:	4a1b      	ldr	r2, [pc, #108]	; (904 <Reset_Handler+0xb0>)
     898:	78d3      	ldrb	r3, [r2, #3]
     89a:	2503      	movs	r5, #3
     89c:	43ab      	bics	r3, r5
     89e:	2402      	movs	r4, #2
     8a0:	4323      	orrs	r3, r4
     8a2:	70d3      	strb	r3, [r2, #3]
     8a4:	78d3      	ldrb	r3, [r2, #3]
     8a6:	270c      	movs	r7, #12
     8a8:	43bb      	bics	r3, r7
     8aa:	2608      	movs	r6, #8
     8ac:	4333      	orrs	r3, r6
     8ae:	70d3      	strb	r3, [r2, #3]
     8b0:	4b15      	ldr	r3, [pc, #84]	; (908 <Reset_Handler+0xb4>)
     8b2:	7b98      	ldrb	r0, [r3, #14]
     8b4:	2230      	movs	r2, #48	; 0x30
     8b6:	4390      	bics	r0, r2
     8b8:	2220      	movs	r2, #32
     8ba:	4310      	orrs	r0, r2
     8bc:	7398      	strb	r0, [r3, #14]
     8be:	7b99      	ldrb	r1, [r3, #14]
     8c0:	43b9      	bics	r1, r7
     8c2:	4331      	orrs	r1, r6
     8c4:	7399      	strb	r1, [r3, #14]
     8c6:	7b9a      	ldrb	r2, [r3, #14]
     8c8:	43aa      	bics	r2, r5
     8ca:	4322      	orrs	r2, r4
     8cc:	739a      	strb	r2, [r3, #14]
     8ce:	4a0f      	ldr	r2, [pc, #60]	; (90c <Reset_Handler+0xb8>)
     8d0:	6851      	ldr	r1, [r2, #4]
     8d2:	2380      	movs	r3, #128	; 0x80
     8d4:	430b      	orrs	r3, r1
     8d6:	6053      	str	r3, [r2, #4]
     8d8:	4b0d      	ldr	r3, [pc, #52]	; (910 <Reset_Handler+0xbc>)
     8da:	4798      	blx	r3
     8dc:	4b0d      	ldr	r3, [pc, #52]	; (914 <Reset_Handler+0xc0>)
     8de:	4798      	blx	r3
     8e0:	e7fe      	b.n	8e0 <Reset_Handler+0x8c>
     8e2:	46c0      	nop			; (mov r8, r8)
     8e4:	000010d4 	.word	0x000010d4
     8e8:	20000000 	.word	0x20000000
     8ec:	20000434 	.word	0x20000434
     8f0:	20000434 	.word	0x20000434
     8f4:	200004cc 	.word	0x200004cc
     8f8:	e000ed00 	.word	0xe000ed00
     8fc:	00000000 	.word	0x00000000
     900:	41007000 	.word	0x41007000
     904:	41005000 	.word	0x41005000
     908:	41004800 	.word	0x41004800
     90c:	41004000 	.word	0x41004000
     910:	00000e6d 	.word	0x00000e6d
     914:	00000cc9 	.word	0x00000cc9

00000918 <SystemInit>:
     918:	4955      	ldr	r1, [pc, #340]	; (a70 <SystemInit+0x158>)
     91a:	684a      	ldr	r2, [r1, #4]
     91c:	231e      	movs	r3, #30
     91e:	439a      	bics	r2, r3
     920:	3b1c      	subs	r3, #28
     922:	4313      	orrs	r3, r2
     924:	604b      	str	r3, [r1, #4]
     926:	4a53      	ldr	r2, [pc, #332]	; (a74 <SystemInit+0x15c>)
     928:	6993      	ldr	r3, [r2, #24]
     92a:	2108      	movs	r1, #8
     92c:	430b      	orrs	r3, r1
     92e:	6193      	str	r3, [r2, #24]
     930:	4b51      	ldr	r3, [pc, #324]	; (a78 <SystemInit+0x160>)
     932:	4a52      	ldr	r2, [pc, #328]	; (a7c <SystemInit+0x164>)
     934:	829a      	strh	r2, [r3, #20]
     936:	8a9a      	ldrh	r2, [r3, #20]
     938:	2102      	movs	r1, #2
     93a:	430a      	orrs	r2, r1
     93c:	829a      	strh	r2, [r3, #20]
     93e:	4b4e      	ldr	r3, [pc, #312]	; (a78 <SystemInit+0x160>)
     940:	68db      	ldr	r3, [r3, #12]
     942:	079b      	lsls	r3, r3, #30
     944:	d5fb      	bpl.n	93e <SystemInit+0x26>
     946:	2201      	movs	r2, #1
     948:	4b4d      	ldr	r3, [pc, #308]	; (a80 <SystemInit+0x168>)
     94a:	701a      	strb	r2, [r3, #0]
     94c:	4b4c      	ldr	r3, [pc, #304]	; (a80 <SystemInit+0x168>)
     94e:	781b      	ldrb	r3, [r3, #0]
     950:	07db      	lsls	r3, r3, #31
     952:	d504      	bpl.n	95e <SystemInit+0x46>
     954:	4b4a      	ldr	r3, [pc, #296]	; (a80 <SystemInit+0x168>)
     956:	785b      	ldrb	r3, [r3, #1]
     958:	b25b      	sxtb	r3, r3
     95a:	2b00      	cmp	r3, #0
     95c:	dbf6      	blt.n	94c <SystemInit+0x34>
     95e:	2201      	movs	r2, #1
     960:	4b47      	ldr	r3, [pc, #284]	; (a80 <SystemInit+0x168>)
     962:	609a      	str	r2, [r3, #8]
     964:	4b46      	ldr	r3, [pc, #280]	; (a80 <SystemInit+0x168>)
     966:	785b      	ldrb	r3, [r3, #1]
     968:	b25b      	sxtb	r3, r3
     96a:	2b00      	cmp	r3, #0
     96c:	dbfa      	blt.n	964 <SystemInit+0x4c>
     96e:	4a45      	ldr	r2, [pc, #276]	; (a84 <SystemInit+0x16c>)
     970:	4b43      	ldr	r3, [pc, #268]	; (a80 <SystemInit+0x168>)
     972:	605a      	str	r2, [r3, #4]
     974:	4b42      	ldr	r3, [pc, #264]	; (a80 <SystemInit+0x168>)
     976:	785b      	ldrb	r3, [r3, #1]
     978:	b25b      	sxtb	r3, r3
     97a:	2b00      	cmp	r3, #0
     97c:	dbfa      	blt.n	974 <SystemInit+0x5c>
     97e:	2282      	movs	r2, #130	; 0x82
     980:	01d2      	lsls	r2, r2, #7
     982:	4b3f      	ldr	r3, [pc, #252]	; (a80 <SystemInit+0x168>)
     984:	805a      	strh	r2, [r3, #2]
     986:	4b3e      	ldr	r3, [pc, #248]	; (a80 <SystemInit+0x168>)
     988:	785b      	ldrb	r3, [r3, #1]
     98a:	b25b      	sxtb	r3, r3
     98c:	2b00      	cmp	r3, #0
     98e:	dbfa      	blt.n	986 <SystemInit+0x6e>
     990:	4a39      	ldr	r2, [pc, #228]	; (a78 <SystemInit+0x160>)
     992:	8c93      	ldrh	r3, [r2, #36]	; 0x24
     994:	2180      	movs	r1, #128	; 0x80
     996:	438b      	bics	r3, r1
     998:	8493      	strh	r3, [r2, #36]	; 0x24
     99a:	4b37      	ldr	r3, [pc, #220]	; (a78 <SystemInit+0x160>)
     99c:	68db      	ldr	r3, [r3, #12]
     99e:	06db      	lsls	r3, r3, #27
     9a0:	d5fb      	bpl.n	99a <SystemInit+0x82>
     9a2:	4a39      	ldr	r2, [pc, #228]	; (a88 <SystemInit+0x170>)
     9a4:	4b34      	ldr	r3, [pc, #208]	; (a78 <SystemInit+0x160>)
     9a6:	62da      	str	r2, [r3, #44]	; 0x2c
     9a8:	4b33      	ldr	r3, [pc, #204]	; (a78 <SystemInit+0x160>)
     9aa:	68db      	ldr	r3, [r3, #12]
     9ac:	06db      	lsls	r3, r3, #27
     9ae:	d5fb      	bpl.n	9a8 <SystemInit+0x90>
     9b0:	4a31      	ldr	r2, [pc, #196]	; (a78 <SystemInit+0x160>)
     9b2:	8c93      	ldrh	r3, [r2, #36]	; 0x24
     9b4:	4935      	ldr	r1, [pc, #212]	; (a8c <SystemInit+0x174>)
     9b6:	430b      	orrs	r3, r1
     9b8:	8493      	strh	r3, [r2, #36]	; 0x24
     9ba:	4b2f      	ldr	r3, [pc, #188]	; (a78 <SystemInit+0x160>)
     9bc:	68db      	ldr	r3, [r3, #12]
     9be:	06db      	lsls	r3, r3, #27
     9c0:	d5fb      	bpl.n	9ba <SystemInit+0xa2>
     9c2:	4a2d      	ldr	r2, [pc, #180]	; (a78 <SystemInit+0x160>)
     9c4:	8c93      	ldrh	r3, [r2, #36]	; 0x24
     9c6:	2102      	movs	r1, #2
     9c8:	430b      	orrs	r3, r1
     9ca:	b29b      	uxth	r3, r3
     9cc:	8493      	strh	r3, [r2, #36]	; 0x24
     9ce:	4b2a      	ldr	r3, [pc, #168]	; (a78 <SystemInit+0x160>)
     9d0:	68db      	ldr	r3, [r3, #12]
     9d2:	061b      	lsls	r3, r3, #24
     9d4:	d5fb      	bpl.n	9ce <SystemInit+0xb6>
     9d6:	4b28      	ldr	r3, [pc, #160]	; (a78 <SystemInit+0x160>)
     9d8:	68db      	ldr	r3, [r3, #12]
     9da:	065b      	lsls	r3, r3, #25
     9dc:	d5f7      	bpl.n	9ce <SystemInit+0xb6>
     9de:	4b26      	ldr	r3, [pc, #152]	; (a78 <SystemInit+0x160>)
     9e0:	68db      	ldr	r3, [r3, #12]
     9e2:	06db      	lsls	r3, r3, #27
     9e4:	d5fb      	bpl.n	9de <SystemInit+0xc6>
     9e6:	2200      	movs	r2, #0
     9e8:	4b25      	ldr	r3, [pc, #148]	; (a80 <SystemInit+0x168>)
     9ea:	609a      	str	r2, [r3, #8]
     9ec:	4b24      	ldr	r3, [pc, #144]	; (a80 <SystemInit+0x168>)
     9ee:	785b      	ldrb	r3, [r3, #1]
     9f0:	b25b      	sxtb	r3, r3
     9f2:	2b00      	cmp	r3, #0
     9f4:	dbfa      	blt.n	9ec <SystemInit+0xd4>
     9f6:	4a26      	ldr	r2, [pc, #152]	; (a90 <SystemInit+0x178>)
     9f8:	4b21      	ldr	r3, [pc, #132]	; (a80 <SystemInit+0x168>)
     9fa:	605a      	str	r2, [r3, #4]
     9fc:	4b20      	ldr	r3, [pc, #128]	; (a80 <SystemInit+0x168>)
     9fe:	785b      	ldrb	r3, [r3, #1]
     a00:	b25b      	sxtb	r3, r3
     a02:	2b00      	cmp	r3, #0
     a04:	dbfa      	blt.n	9fc <SystemInit+0xe4>
     a06:	4b1c      	ldr	r3, [pc, #112]	; (a78 <SystemInit+0x160>)
     a08:	6a19      	ldr	r1, [r3, #32]
     a0a:	4a22      	ldr	r2, [pc, #136]	; (a94 <SystemInit+0x17c>)
     a0c:	4011      	ands	r1, r2
     a0e:	2280      	movs	r2, #128	; 0x80
     a10:	0052      	lsls	r2, r2, #1
     a12:	430a      	orrs	r2, r1
     a14:	621a      	str	r2, [r3, #32]
     a16:	6a19      	ldr	r1, [r3, #32]
     a18:	2280      	movs	r2, #128	; 0x80
     a1a:	4391      	bics	r1, r2
     a1c:	6219      	str	r1, [r3, #32]
     a1e:	4b18      	ldr	r3, [pc, #96]	; (a80 <SystemInit+0x168>)
     a20:	2203      	movs	r2, #3
     a22:	609a      	str	r2, [r3, #8]
     a24:	4a1c      	ldr	r2, [pc, #112]	; (a98 <SystemInit+0x180>)
     a26:	605a      	str	r2, [r3, #4]
     a28:	4b15      	ldr	r3, [pc, #84]	; (a80 <SystemInit+0x168>)
     a2a:	785b      	ldrb	r3, [r3, #1]
     a2c:	b25b      	sxtb	r3, r3
     a2e:	2b00      	cmp	r3, #0
     a30:	dbfa      	blt.n	a28 <SystemInit+0x110>
     a32:	4b10      	ldr	r3, [pc, #64]	; (a74 <SystemInit+0x15c>)
     a34:	2200      	movs	r2, #0
     a36:	721a      	strb	r2, [r3, #8]
     a38:	725a      	strb	r2, [r3, #9]
     a3a:	729a      	strb	r2, [r3, #10]
     a3c:	72da      	strb	r2, [r3, #11]
     a3e:	4a17      	ldr	r2, [pc, #92]	; (a9c <SystemInit+0x184>)
     a40:	4b17      	ldr	r3, [pc, #92]	; (aa0 <SystemInit+0x188>)
     a42:	601a      	str	r2, [r3, #0]
     a44:	4b17      	ldr	r3, [pc, #92]	; (aa4 <SystemInit+0x18c>)
     a46:	6819      	ldr	r1, [r3, #0]
     a48:	08ca      	lsrs	r2, r1, #3
     a4a:	2307      	movs	r3, #7
     a4c:	4013      	ands	r3, r2
     a4e:	4a16      	ldr	r2, [pc, #88]	; (aa8 <SystemInit+0x190>)
     a50:	6812      	ldr	r2, [r2, #0]
     a52:	0ed2      	lsrs	r2, r2, #27
     a54:	0149      	lsls	r1, r1, #5
     a56:	20ff      	movs	r0, #255	; 0xff
     a58:	4001      	ands	r1, r0
     a5a:	021b      	lsls	r3, r3, #8
     a5c:	430a      	orrs	r2, r1
     a5e:	4313      	orrs	r3, r2
     a60:	4a12      	ldr	r2, [pc, #72]	; (aac <SystemInit+0x194>)
     a62:	8513      	strh	r3, [r2, #40]	; 0x28
     a64:	4a02      	ldr	r2, [pc, #8]	; (a70 <SystemInit+0x158>)
     a66:	6851      	ldr	r1, [r2, #4]
     a68:	2380      	movs	r3, #128	; 0x80
     a6a:	430b      	orrs	r3, r1
     a6c:	6053      	str	r3, [r2, #4]
     a6e:	4770      	bx	lr
     a70:	41004000 	.word	0x41004000
     a74:	40000400 	.word	0x40000400
     a78:	40000800 	.word	0x40000800
     a7c:	0000060c 	.word	0x0000060c
     a80:	40000c00 	.word	0x40000c00
     a84:	00010501 	.word	0x00010501
     a88:	7dff05b8 	.word	0x7dff05b8
     a8c:	00000a04 	.word	0x00000a04
     a90:	00030700 	.word	0x00030700
     a94:	fffffcff 	.word	0xfffffcff
     a98:	00010603 	.word	0x00010603
     a9c:	02dc6c00 	.word	0x02dc6c00
     aa0:	20000000 	.word	0x20000000
     aa4:	00806024 	.word	0x00806024
     aa8:	00806020 	.word	0x00806020
     aac:	42004000 	.word	0x42004000

00000ab0 <i2c_init>:
//
//------------------------------------------------------------------------------

//==============================================================================
void i2c_init(void)
{
     ab0:	b5f0      	push	{r4, r5, r6, r7, lr}

	// Set up the SCL Pin
	//Set the direction - it is an output, but we want the input enable on as well
	//so that we can read it at the same time ... because I2C. 
	PORT->Group[I2C_SCL_GROUP].DIRSET.reg = I2C_SCL;
     ab2:	4b3f      	ldr	r3, [pc, #252]	; (bb0 <i2c_init+0x100>)
     ab4:	2080      	movs	r0, #128	; 0x80
     ab6:	0400      	lsls	r0, r0, #16
     ab8:	6098      	str	r0, [r3, #8]
	PORT->Group[I2C_SCL_GROUP].PINCFG[I2C_SCL_PIN].bit.INEN = 1;
     aba:	2257      	movs	r2, #87	; 0x57
     abc:	5c99      	ldrb	r1, [r3, r2]
     abe:	2402      	movs	r4, #2
     ac0:	4321      	orrs	r1, r4
     ac2:	5499      	strb	r1, [r3, r2]
	// Set the pullup
	PORT->Group[I2C_SCL_GROUP].OUTSET.reg = I2C_SCL;
     ac4:	6198      	str	r0, [r3, #24]
	PORT->Group[I2C_SCL_GROUP].PINCFG[I2C_SCL_PIN].bit.PULLEN = 1;
     ac6:	5c99      	ldrb	r1, [r3, r2]
     ac8:	2004      	movs	r0, #4
     aca:	4684      	mov	ip, r0
     acc:	4660      	mov	r0, ip
     ace:	4301      	orrs	r1, r0
     ad0:	5499      	strb	r1, [r3, r2]
	//Set the PMUX
	PORT->Group[I2C_SCL_GROUP].PINCFG[I2C_SCL_PIN].bit.PMUXEN = 1;
     ad2:	5c99      	ldrb	r1, [r3, r2]
     ad4:	2701      	movs	r7, #1
     ad6:	4339      	orrs	r1, r7
     ad8:	5499      	strb	r1, [r3, r2]
    if (I2C_SCL_PIN & 1)								
	  PORT->Group[I2C_SCL_GROUP].PMUX[I2C_SCL_PMUX].bit.PMUXO = I2C_SERCOM_PMUX;		
     ada:	203b      	movs	r0, #59	; 0x3b
     adc:	5c1a      	ldrb	r2, [r3, r0]
     ade:	210f      	movs	r1, #15
     ae0:	4011      	ands	r1, r2
     ae2:	2220      	movs	r2, #32
     ae4:	4311      	orrs	r1, r2
     ae6:	5419      	strb	r1, [r3, r0]


    // Set up the SDA PIN
	//Set the direction - it is an output, but we want the input enable on as well
	//so that we can read it at the same time ... because I2C.
	PORT->Group[I2C_SDA_GROUP].DIRSET.reg = I2C_SDA;
     ae8:	2180      	movs	r1, #128	; 0x80
     aea:	03c9      	lsls	r1, r1, #15
     aec:	6099      	str	r1, [r3, #8]
	PORT->Group[I2C_SDA_GROUP].PINCFG[I2C_SDA_PIN].bit.INEN = 1;
     aee:	2256      	movs	r2, #86	; 0x56
     af0:	5c9e      	ldrb	r6, [r3, r2]
     af2:	4326      	orrs	r6, r4
     af4:	549e      	strb	r6, [r3, r2]
	// Set the pullup
	PORT->Group[I2C_SDA_GROUP].OUTSET.reg = I2C_SDA;
     af6:	6199      	str	r1, [r3, #24]
	PORT->Group[I2C_SDA_GROUP].PINCFG[I2C_SDA_PIN].bit.PULLEN = 1;
     af8:	5c9d      	ldrb	r5, [r3, r2]
     afa:	4661      	mov	r1, ip
     afc:	430d      	orrs	r5, r1
     afe:	549d      	strb	r5, [r3, r2]
	//Set the PMUX
	PORT->Group[I2C_SDA_GROUP].PINCFG[I2C_SDA_PIN].bit.PMUXEN = 1;
     b00:	5c99      	ldrb	r1, [r3, r2]
     b02:	4339      	orrs	r1, r7
     b04:	5499      	strb	r1, [r3, r2]
	if (I2C_SDA_PIN & 1)
		PORT->Group[I2C_SDA_GROUP].PMUX[I2C_SDA_PMUX].bit.PMUXO = I2C_SERCOM_PMUX;
	else
		PORT->Group[I2C_SDA_GROUP].PMUX[I2C_SDA_PMUX].bit.PMUXE = I2C_SERCOM_PMUX;
     b06:	5c1a      	ldrb	r2, [r3, r0]
     b08:	210f      	movs	r1, #15
     b0a:	438a      	bics	r2, r1
     b0c:	4322      	orrs	r2, r4
     b0e:	541a      	strb	r2, [r3, r0]
	
	// Turn on the clock
	PM->APBCMASK.reg |= I2C_SERCOM_APBCMASK;
     b10:	4a28      	ldr	r2, [pc, #160]	; (bb4 <i2c_init+0x104>)
     b12:	6a13      	ldr	r3, [r2, #32]
     b14:	3111      	adds	r1, #17
     b16:	430b      	orrs	r3, r1
     b18:	6213      	str	r3, [r2, #32]

    // Configure the clock
	GCLK->CLKCTRL.reg = I2C_SERCOM_GCLK_ID |
     b1a:	4a27      	ldr	r2, [pc, #156]	; (bb8 <i2c_init+0x108>)
     b1c:	4b27      	ldr	r3, [pc, #156]	; (bbc <i2c_init+0x10c>)
     b1e:	805a      	strh	r2, [r3, #2]
	                    GCLK_CLKCTRL_CLKEN | 
						I2C_SERCOM_CLK_GEN;

    //Turn off the I2C enable so that we can write the protected registers
	I2C_SERCOM->I2CM.CTRLA.bit.ENABLE = 0;
     b20:	4b27      	ldr	r3, [pc, #156]	; (bc0 <i2c_init+0x110>)
     b22:	6819      	ldr	r1, [r3, #0]
     b24:	2202      	movs	r2, #2
     b26:	4391      	bics	r1, r2
     b28:	6019      	str	r1, [r3, #0]
	while (I2C_SERCOM->I2CM.SYNCBUSY.reg);
     b2a:	4b25      	ldr	r3, [pc, #148]	; (bc0 <i2c_init+0x110>)
     b2c:	69db      	ldr	r3, [r3, #28]
     b2e:	2b00      	cmp	r3, #0
     b30:	d1fb      	bne.n	b2a <i2c_init+0x7a>

	// Turn on smart mode (because it is smart)
	I2C_SERCOM->I2CM.CTRLB.bit.SMEN = 1;
     b32:	4a23      	ldr	r2, [pc, #140]	; (bc0 <i2c_init+0x110>)
     b34:	6851      	ldr	r1, [r2, #4]
     b36:	3301      	adds	r3, #1
     b38:	33ff      	adds	r3, #255	; 0xff
     b3a:	430b      	orrs	r3, r1
     b3c:	6053      	str	r3, [r2, #4]
	while (I2C_SERCOM->I2CM.SYNCBUSY.reg);
     b3e:	4b20      	ldr	r3, [pc, #128]	; (bc0 <i2c_init+0x110>)
     b40:	69db      	ldr	r3, [r3, #28]
     b42:	2b00      	cmp	r3, #0
     b44:	d1fb      	bne.n	b3e <i2c_init+0x8e>
    // Set the baud rate - this is a confusing little formula as 
	// it involves the actual rise time of SCL on the board
	// We would need to measure this to predict the outcome,
	// Or, we can just change it until we like it. 
	// See 27.6.2.4 of the datasheet.
	I2C_SERCOM->I2CM.BAUD.reg = SERCOM_I2CM_BAUD_BAUD(232);
     b46:	22e8      	movs	r2, #232	; 0xe8
     b48:	4b1d      	ldr	r3, [pc, #116]	; (bc0 <i2c_init+0x110>)
     b4a:	60da      	str	r2, [r3, #12]
	while (I2C_SERCOM->I2CM.SYNCBUSY.reg);
     b4c:	4b1c      	ldr	r3, [pc, #112]	; (bc0 <i2c_init+0x110>)
     b4e:	69db      	ldr	r3, [r3, #28]
     b50:	2b00      	cmp	r3, #0
     b52:	d1fb      	bne.n	b4c <i2c_init+0x9c>

    // Set us up as a Master
	I2C_SERCOM->I2CM.CTRLA.bit.MODE = SERCOM_I2CM_CTRLA_MODE_I2C_MASTER_Val;
     b54:	491a      	ldr	r1, [pc, #104]	; (bc0 <i2c_init+0x110>)
     b56:	680a      	ldr	r2, [r1, #0]
     b58:	331c      	adds	r3, #28
     b5a:	439a      	bics	r2, r3
     b5c:	3b08      	subs	r3, #8
     b5e:	4313      	orrs	r3, r2
     b60:	600b      	str	r3, [r1, #0]
	while (I2C_SERCOM->I2CM.SYNCBUSY.reg);
     b62:	4b17      	ldr	r3, [pc, #92]	; (bc0 <i2c_init+0x110>)
     b64:	69db      	ldr	r3, [r3, #28]
     b66:	2b00      	cmp	r3, #0
     b68:	d1fb      	bne.n	b62 <i2c_init+0xb2>
	
	// Set the hold time to 600ns
	I2C_SERCOM->I2CM.CTRLA.bit.SDAHOLD == 3;
     b6a:	4b15      	ldr	r3, [pc, #84]	; (bc0 <i2c_init+0x110>)
     b6c:	681b      	ldr	r3, [r3, #0]
	while (I2C_SERCOM->I2CM.SYNCBUSY.reg);
     b6e:	4b14      	ldr	r3, [pc, #80]	; (bc0 <i2c_init+0x110>)
     b70:	69db      	ldr	r3, [r3, #28]
     b72:	2b00      	cmp	r3, #0
     b74:	d1fb      	bne.n	b6e <i2c_init+0xbe>

    //Turn on the I2C enable 
	I2C_SERCOM->I2CM.CTRLA.bit.ENABLE = 1;
     b76:	4a12      	ldr	r2, [pc, #72]	; (bc0 <i2c_init+0x110>)
     b78:	6811      	ldr	r1, [r2, #0]
     b7a:	3302      	adds	r3, #2
     b7c:	430b      	orrs	r3, r1
     b7e:	6013      	str	r3, [r2, #0]
	while (I2C_SERCOM->I2CM.SYNCBUSY.reg);
     b80:	4b0f      	ldr	r3, [pc, #60]	; (bc0 <i2c_init+0x110>)
     b82:	69db      	ldr	r3, [r3, #28]
     b84:	2b00      	cmp	r3, #0
     b86:	d1fb      	bne.n	b80 <i2c_init+0xd0>

	// Set the bus state to be IDLE (this has to be after the enable)
	I2C_SERCOM->I2CM.STATUS.reg |= SERCOM_I2CM_STATUS_BUSSTATE(1);
     b88:	4a0d      	ldr	r2, [pc, #52]	; (bc0 <i2c_init+0x110>)
     b8a:	8b53      	ldrh	r3, [r2, #26]
     b8c:	2110      	movs	r1, #16
     b8e:	430b      	orrs	r3, r1
     b90:	b29b      	uxth	r3, r3
     b92:	8353      	strh	r3, [r2, #26]
	while (I2C_SERCOM->I2CM.SYNCBUSY.reg);
     b94:	4b0a      	ldr	r3, [pc, #40]	; (bc0 <i2c_init+0x110>)
     b96:	69db      	ldr	r3, [r3, #28]
     b98:	2b00      	cmp	r3, #0
     b9a:	d1fb      	bne.n	b94 <i2c_init+0xe4>
	
	I2C_SERCOM->I2CM.INTENSET.bit.MB = 1; // Enable master bus interrupt
     b9c:	4b08      	ldr	r3, [pc, #32]	; (bc0 <i2c_init+0x110>)
     b9e:	7d9a      	ldrb	r2, [r3, #22]
     ba0:	2101      	movs	r1, #1
     ba2:	430a      	orrs	r2, r1
     ba4:	759a      	strb	r2, [r3, #22]
	I2C_SERCOM->I2CM.INTENSET.bit.SB = 1; // Enable slave bus interrupt
     ba6:	7d9a      	ldrb	r2, [r3, #22]
     ba8:	2102      	movs	r1, #2
     baa:	430a      	orrs	r2, r1
     bac:	759a      	strb	r2, [r3, #22]

}
     bae:	bdf0      	pop	{r4, r5, r6, r7, pc}
     bb0:	41004400 	.word	0x41004400
     bb4:	40000400 	.word	0x40000400
     bb8:	00004017 	.word	0x00004017
     bbc:	40000c00 	.word	0x40000c00
     bc0:	42001400 	.word	0x42001400

00000bc4 <i2c_write>:

//==============================================================================
uint8_t i2c_write(uint8_t addr, uint8_t *data, int size)
{
     bc4:	b570      	push	{r4, r5, r6, lr}
    // Send the address
	I2C_SERCOM->I2CM.ADDR.reg = addr | I2C_TRANSFER_WRITE;
     bc6:	4b14      	ldr	r3, [pc, #80]	; (c18 <i2c_write+0x54>)
     bc8:	6258      	str	r0, [r3, #36]	; 0x24

	//while (0 == (I2C_SERCOM->I2CM.INTFLAG.reg & SERCOM_I2CM_INTFLAG_MB));

	if (I2C_SERCOM->I2CM.STATUS.reg & SERCOM_I2CM_STATUS_RXNACK)
     bca:	8b5b      	ldrh	r3, [r3, #26]
     bcc:	075b      	lsls	r3, r3, #29
     bce:	d40b      	bmi.n	be8 <i2c_write+0x24>
     bd0:	2300      	movs	r3, #0
	{
		I2C_SERCOM->I2CM.CTRLB.reg |= SERCOM_I2CM_CTRLB_CMD(3);
		return false;
	}

	for (int i = 0; i < size; i++)
     bd2:	4293      	cmp	r3, r2
     bd4:	da18      	bge.n	c08 <i2c_write+0x44>
	{
		I2C_SERCOM->I2CM.DATA.reg = data[i];
     bd6:	5cce      	ldrb	r6, [r1, r3]
     bd8:	4c0f      	ldr	r4, [pc, #60]	; (c18 <i2c_write+0x54>)
     bda:	2528      	movs	r5, #40	; 0x28
     bdc:	5566      	strb	r6, [r4, r5]

		//while (0 == (I2C_SERCOM->I2CM.INTFLAG.reg & SERCOM_I2CM_INTFLAG_MB));

		if (I2C_SERCOM->I2CM.STATUS.reg & SERCOM_I2CM_STATUS_RXNACK)
     bde:	8b64      	ldrh	r4, [r4, #26]
     be0:	0760      	lsls	r0, r4, #29
     be2:	d409      	bmi.n	bf8 <i2c_write+0x34>
	for (int i = 0; i < size; i++)
     be4:	3301      	adds	r3, #1
     be6:	e7f4      	b.n	bd2 <i2c_write+0xe>
		I2C_SERCOM->I2CM.CTRLB.reg |= SERCOM_I2CM_CTRLB_CMD(3);
     be8:	4a0b      	ldr	r2, [pc, #44]	; (c18 <i2c_write+0x54>)
     bea:	6851      	ldr	r1, [r2, #4]
     bec:	23c0      	movs	r3, #192	; 0xc0
     bee:	029b      	lsls	r3, r3, #10
     bf0:	430b      	orrs	r3, r1
     bf2:	6053      	str	r3, [r2, #4]
		return false;
     bf4:	2000      	movs	r0, #0
	}

	I2C_SERCOM->I2CM.CTRLB.reg |= SERCOM_I2CM_CTRLB_CMD(3);

	return size;
}
     bf6:	bd70      	pop	{r4, r5, r6, pc}
			I2C_SERCOM->I2CM.CTRLB.reg |= SERCOM_I2CM_CTRLB_CMD(3);
     bf8:	4a07      	ldr	r2, [pc, #28]	; (c18 <i2c_write+0x54>)
     bfa:	6851      	ldr	r1, [r2, #4]
     bfc:	23c0      	movs	r3, #192	; 0xc0
     bfe:	029b      	lsls	r3, r3, #10
     c00:	430b      	orrs	r3, r1
     c02:	6053      	str	r3, [r2, #4]
			return false;
     c04:	2000      	movs	r0, #0
     c06:	e7f6      	b.n	bf6 <i2c_write+0x32>
	I2C_SERCOM->I2CM.CTRLB.reg |= SERCOM_I2CM_CTRLB_CMD(3);
     c08:	4903      	ldr	r1, [pc, #12]	; (c18 <i2c_write+0x54>)
     c0a:	6848      	ldr	r0, [r1, #4]
     c0c:	23c0      	movs	r3, #192	; 0xc0
     c0e:	029b      	lsls	r3, r3, #10
     c10:	4303      	orrs	r3, r0
     c12:	604b      	str	r3, [r1, #4]
	return size;
     c14:	b2d0      	uxtb	r0, r2
     c16:	e7ee      	b.n	bf6 <i2c_write+0x32>
     c18:	42001400 	.word	0x42001400

00000c1c <i2c_read>:


//==============================================================================
uint8_t i2c_read(uint8_t addr, uint8_t *data, int state)
{
	I2C_SERCOM->I2CM.ADDR.reg = addr | I2C_TRANSFER_READ;
     c1c:	2301      	movs	r3, #1
     c1e:	4318      	orrs	r0, r3
     c20:	b2c0      	uxtb	r0, r0
     c22:	4b02      	ldr	r3, [pc, #8]	; (c2c <i2c_read+0x10>)
     c24:	6258      	str	r0, [r3, #36]	; 0x24
		I2C_SERCOM->I2CM.CTRLB.reg |= SERCOM_I2CM_CTRLB_CMD(3);
		//data[size-1] = I2C_SERCOM->I2CM.DATA.reg;
		data[state] = I2C_SERCOM->I2CM.DATA.reg;
	}*/

	return state;
     c26:	b2d0      	uxtb	r0, r2
}
     c28:	4770      	bx	lr
     c2a:	46c0      	nop			; (mov r8, r8)
     c2c:	42001400 	.word	0x42001400

00000c30 <SERCOM3_Handler>:
//     | /__` |__)  /__`   
//     | .__/ |  \  .__/
//
//------------------------------------------------------------------------------
void SERCOM3_Handler()
{
     c30:	b510      	push	{r4, lr}
	if (I2C_SERCOM->I2CM.INTFLAG.bit.SB == 1)
     c32:	4b1b      	ldr	r3, [pc, #108]	; (ca0 <SERCOM3_Handler+0x70>)
     c34:	7e1b      	ldrb	r3, [r3, #24]
     c36:	079b      	lsls	r3, r3, #30
     c38:	d400      	bmi.n	c3c <SERCOM3_Handler+0xc>
		if (state)
		{
			user_i2c_read(BMI160_I2C_ADDR, BMI160_ACCEL_DATA_ADDR + state, val, state); // read byte
		}
	}
     c3a:	bd10      	pop	{r4, pc}
		I2C_SERCOM->I2CM.INTFLAG.bit.SB = 0; // clear int flag
     c3c:	4b18      	ldr	r3, [pc, #96]	; (ca0 <SERCOM3_Handler+0x70>)
     c3e:	7e1a      	ldrb	r2, [r3, #24]
     c40:	2102      	movs	r1, #2
     c42:	438a      	bics	r2, r1
     c44:	761a      	strb	r2, [r3, #24]
		I2C_SERCOM->I2CM.CTRLB.reg &= ~SERCOM_I2CM_CTRLB_ACKACT;
     c46:	685a      	ldr	r2, [r3, #4]
     c48:	4916      	ldr	r1, [pc, #88]	; (ca4 <SERCOM3_Handler+0x74>)
     c4a:	400a      	ands	r2, r1
     c4c:	605a      	str	r2, [r3, #4]
		I2C_SERCOM->I2CM.CTRLB.reg |= SERCOM_I2CM_CTRLB_ACKACT;
     c4e:	6859      	ldr	r1, [r3, #4]
     c50:	2280      	movs	r2, #128	; 0x80
     c52:	02d2      	lsls	r2, r2, #11
     c54:	430a      	orrs	r2, r1
     c56:	605a      	str	r2, [r3, #4]
		I2C_SERCOM->I2CM.CTRLB.reg |= SERCOM_I2CM_CTRLB_CMD(3);
     c58:	6859      	ldr	r1, [r3, #4]
     c5a:	22c0      	movs	r2, #192	; 0xc0
     c5c:	0292      	lsls	r2, r2, #10
     c5e:	430a      	orrs	r2, r1
     c60:	605a      	str	r2, [r3, #4]
		accel_data[state] = I2C_SERCOM->I2CM.DATA.reg;
     c62:	4c11      	ldr	r4, [pc, #68]	; (ca8 <SERCOM3_Handler+0x78>)
     c64:	7822      	ldrb	r2, [r4, #0]
     c66:	b2d2      	uxtb	r2, r2
     c68:	2128      	movs	r1, #40	; 0x28
     c6a:	5c59      	ldrb	r1, [r3, r1]
     c6c:	4b0f      	ldr	r3, [pc, #60]	; (cac <SERCOM3_Handler+0x7c>)
     c6e:	5499      	strb	r1, [r3, r2]
		state++; // increment state
     c70:	7823      	ldrb	r3, [r4, #0]
     c72:	3301      	adds	r3, #1
     c74:	b2db      	uxtb	r3, r3
     c76:	7023      	strb	r3, [r4, #0]
		state %= 6; // if state is 4, reset to X
     c78:	7820      	ldrb	r0, [r4, #0]
     c7a:	b2c0      	uxtb	r0, r0
     c7c:	2106      	movs	r1, #6
     c7e:	4b0c      	ldr	r3, [pc, #48]	; (cb0 <SERCOM3_Handler+0x80>)
     c80:	4798      	blx	r3
     c82:	b2c9      	uxtb	r1, r1
     c84:	7021      	strb	r1, [r4, #0]
		if (state)
     c86:	7823      	ldrb	r3, [r4, #0]
     c88:	2b00      	cmp	r3, #0
     c8a:	d0d6      	beq.n	c3a <SERCOM3_Handler+0xa>
			user_i2c_read(BMI160_I2C_ADDR, BMI160_ACCEL_DATA_ADDR + state, val, state); // read byte
     c8c:	7821      	ldrb	r1, [r4, #0]
     c8e:	7862      	ldrb	r2, [r4, #1]
     c90:	b2d2      	uxtb	r2, r2
     c92:	7823      	ldrb	r3, [r4, #0]
     c94:	b2db      	uxtb	r3, r3
     c96:	3112      	adds	r1, #18
     c98:	2068      	movs	r0, #104	; 0x68
     c9a:	4c06      	ldr	r4, [pc, #24]	; (cb4 <SERCOM3_Handler+0x84>)
     c9c:	47a0      	blx	r4
     c9e:	e7cc      	b.n	c3a <SERCOM3_Handler+0xa>
     ca0:	42001400 	.word	0x42001400
     ca4:	fffbffff 	.word	0xfffbffff
     ca8:	20000451 	.word	0x20000451
     cac:	200004a0 	.word	0x200004a0
     cb0:	00000e51 	.word	0x00000e51
     cb4:	00000131 	.word	0x00000131

00000cb8 <getMillis>:
  This function disables IRQ interrupts by setting the I-bit in the CPSR.
  Can only be executed in Privileged modes.
 */
__attribute__( ( always_inline ) ) __STATIC_INLINE void __disable_irq(void)
{
  __ASM volatile ("cpsid i" : : : "memory");
     cb8:	b672      	cpsid	i
//
//-----------------------------------------------------------------------------
static uint32_t getMillis()
{
	__disable_irq();
	uint32_t my_millis = millis;
     cba:	4b02      	ldr	r3, [pc, #8]	; (cc4 <getMillis+0xc>)
     cbc:	6818      	ldr	r0, [r3, #0]
  __ASM volatile ("cpsie i" : : : "memory");
     cbe:	b662      	cpsie	i
	__enable_irq();
	return my_millis;
}
     cc0:	4770      	bx	lr
     cc2:	46c0      	nop			; (mov r8, r8)
     cc4:	20000454 	.word	0x20000454

00000cc8 <main>:
{
     cc8:	b510      	push	{r4, lr}
	SystemInit();
     cca:	4b11      	ldr	r3, [pc, #68]	; (d10 <main+0x48>)
     ccc:	4798      	blx	r3
	i2c_init();
     cce:	4b11      	ldr	r3, [pc, #68]	; (d14 <main+0x4c>)
     cd0:	4798      	blx	r3
	accelerometer_init();
     cd2:	4b11      	ldr	r3, [pc, #68]	; (d18 <main+0x50>)
     cd4:	4798      	blx	r3
 */
__STATIC_INLINE uint32_t SysTick_Config(uint32_t ticks)
{
  if ((ticks - 1) > SysTick_LOAD_RELOAD_Msk)  return (1);      /* Reload value impossible */

  SysTick->LOAD  = ticks - 1;                                  /* set reload register */
     cd6:	4a11      	ldr	r2, [pc, #68]	; (d1c <main+0x54>)
     cd8:	4b11      	ldr	r3, [pc, #68]	; (d20 <main+0x58>)
     cda:	6053      	str	r3, [r2, #4]
    SCB->SHP[_SHP_IDX(IRQn)] = (SCB->SHP[_SHP_IDX(IRQn)] & ~(0xFF << _BIT_SHIFT(IRQn))) |
     cdc:	4811      	ldr	r0, [pc, #68]	; (d24 <main+0x5c>)
     cde:	6a03      	ldr	r3, [r0, #32]
     ce0:	021b      	lsls	r3, r3, #8
     ce2:	0a1b      	lsrs	r3, r3, #8
     ce4:	21c0      	movs	r1, #192	; 0xc0
     ce6:	0609      	lsls	r1, r1, #24
     ce8:	430b      	orrs	r3, r1
     cea:	6203      	str	r3, [r0, #32]
  NVIC_SetPriority (SysTick_IRQn, (1<<__NVIC_PRIO_BITS) - 1);  /* set Priority for Systick Interrupt */
  SysTick->VAL   = 0;                                          /* Load the SysTick Counter Value */
     cec:	2300      	movs	r3, #0
     cee:	6093      	str	r3, [r2, #8]
  SysTick->CTRL  = SysTick_CTRL_CLKSOURCE_Msk |
     cf0:	3307      	adds	r3, #7
     cf2:	6013      	str	r3, [r2, #0]
		new_millis = getMillis();
     cf4:	4b0c      	ldr	r3, [pc, #48]	; (d28 <main+0x60>)
     cf6:	4798      	blx	r3
     cf8:	4b0c      	ldr	r3, [pc, #48]	; (d2c <main+0x64>)
     cfa:	6058      	str	r0, [r3, #4]
		if ((new_millis - old_millis) > 17)
     cfc:	689b      	ldr	r3, [r3, #8]
     cfe:	1ac3      	subs	r3, r0, r3
     d00:	2b11      	cmp	r3, #17
     d02:	d9f7      	bls.n	cf4 <main+0x2c>
			old_millis = new_millis;
     d04:	4b09      	ldr	r3, [pc, #36]	; (d2c <main+0x64>)
     d06:	6098      	str	r0, [r3, #8]
			accelerometer_update();
     d08:	4b09      	ldr	r3, [pc, #36]	; (d30 <main+0x68>)
     d0a:	4798      	blx	r3
     d0c:	e7f2      	b.n	cf4 <main+0x2c>
     d0e:	46c0      	nop			; (mov r8, r8)
     d10:	00000919 	.word	0x00000919
     d14:	00000ab1 	.word	0x00000ab1
     d18:	00000181 	.word	0x00000181
     d1c:	e000e010 	.word	0xe000e010
     d20:	0000bb7f 	.word	0x0000bb7f
     d24:	e000ed00 	.word	0xe000ed00
     d28:	00000cb9 	.word	0x00000cb9
     d2c:	20000454 	.word	0x20000454
     d30:	000001d9 	.word	0x000001d9

00000d34 <SysTick_Handler>:
//     | .__/ |  \ .__/
//
//-----------------------------------------------------------------------------
void SysTick_Handler()
{
	millis++;
     d34:	4a02      	ldr	r2, [pc, #8]	; (d40 <SysTick_Handler+0xc>)
     d36:	6813      	ldr	r3, [r2, #0]
     d38:	3301      	adds	r3, #1
     d3a:	6013      	str	r3, [r2, #0]
     d3c:	4770      	bx	lr
     d3e:	46c0      	nop			; (mov r8, r8)
     d40:	20000454 	.word	0x20000454

00000d44 <__udivsi3>:
     d44:	2200      	movs	r2, #0
     d46:	0843      	lsrs	r3, r0, #1
     d48:	428b      	cmp	r3, r1
     d4a:	d374      	bcc.n	e36 <__udivsi3+0xf2>
     d4c:	0903      	lsrs	r3, r0, #4
     d4e:	428b      	cmp	r3, r1
     d50:	d35f      	bcc.n	e12 <__udivsi3+0xce>
     d52:	0a03      	lsrs	r3, r0, #8
     d54:	428b      	cmp	r3, r1
     d56:	d344      	bcc.n	de2 <__udivsi3+0x9e>
     d58:	0b03      	lsrs	r3, r0, #12
     d5a:	428b      	cmp	r3, r1
     d5c:	d328      	bcc.n	db0 <__udivsi3+0x6c>
     d5e:	0c03      	lsrs	r3, r0, #16
     d60:	428b      	cmp	r3, r1
     d62:	d30d      	bcc.n	d80 <__udivsi3+0x3c>
     d64:	22ff      	movs	r2, #255	; 0xff
     d66:	0209      	lsls	r1, r1, #8
     d68:	ba12      	rev	r2, r2
     d6a:	0c03      	lsrs	r3, r0, #16
     d6c:	428b      	cmp	r3, r1
     d6e:	d302      	bcc.n	d76 <__udivsi3+0x32>
     d70:	1212      	asrs	r2, r2, #8
     d72:	0209      	lsls	r1, r1, #8
     d74:	d065      	beq.n	e42 <__udivsi3+0xfe>
     d76:	0b03      	lsrs	r3, r0, #12
     d78:	428b      	cmp	r3, r1
     d7a:	d319      	bcc.n	db0 <__udivsi3+0x6c>
     d7c:	e000      	b.n	d80 <__udivsi3+0x3c>
     d7e:	0a09      	lsrs	r1, r1, #8
     d80:	0bc3      	lsrs	r3, r0, #15
     d82:	428b      	cmp	r3, r1
     d84:	d301      	bcc.n	d8a <__udivsi3+0x46>
     d86:	03cb      	lsls	r3, r1, #15
     d88:	1ac0      	subs	r0, r0, r3
     d8a:	4152      	adcs	r2, r2
     d8c:	0b83      	lsrs	r3, r0, #14
     d8e:	428b      	cmp	r3, r1
     d90:	d301      	bcc.n	d96 <__udivsi3+0x52>
     d92:	038b      	lsls	r3, r1, #14
     d94:	1ac0      	subs	r0, r0, r3
     d96:	4152      	adcs	r2, r2
     d98:	0b43      	lsrs	r3, r0, #13
     d9a:	428b      	cmp	r3, r1
     d9c:	d301      	bcc.n	da2 <__udivsi3+0x5e>
     d9e:	034b      	lsls	r3, r1, #13
     da0:	1ac0      	subs	r0, r0, r3
     da2:	4152      	adcs	r2, r2
     da4:	0b03      	lsrs	r3, r0, #12
     da6:	428b      	cmp	r3, r1
     da8:	d301      	bcc.n	dae <__udivsi3+0x6a>
     daa:	030b      	lsls	r3, r1, #12
     dac:	1ac0      	subs	r0, r0, r3
     dae:	4152      	adcs	r2, r2
     db0:	0ac3      	lsrs	r3, r0, #11
     db2:	428b      	cmp	r3, r1
     db4:	d301      	bcc.n	dba <__udivsi3+0x76>
     db6:	02cb      	lsls	r3, r1, #11
     db8:	1ac0      	subs	r0, r0, r3
     dba:	4152      	adcs	r2, r2
     dbc:	0a83      	lsrs	r3, r0, #10
     dbe:	428b      	cmp	r3, r1
     dc0:	d301      	bcc.n	dc6 <__udivsi3+0x82>
     dc2:	028b      	lsls	r3, r1, #10
     dc4:	1ac0      	subs	r0, r0, r3
     dc6:	4152      	adcs	r2, r2
     dc8:	0a43      	lsrs	r3, r0, #9
     dca:	428b      	cmp	r3, r1
     dcc:	d301      	bcc.n	dd2 <__udivsi3+0x8e>
     dce:	024b      	lsls	r3, r1, #9
     dd0:	1ac0      	subs	r0, r0, r3
     dd2:	4152      	adcs	r2, r2
     dd4:	0a03      	lsrs	r3, r0, #8
     dd6:	428b      	cmp	r3, r1
     dd8:	d301      	bcc.n	dde <__udivsi3+0x9a>
     dda:	020b      	lsls	r3, r1, #8
     ddc:	1ac0      	subs	r0, r0, r3
     dde:	4152      	adcs	r2, r2
     de0:	d2cd      	bcs.n	d7e <__udivsi3+0x3a>
     de2:	09c3      	lsrs	r3, r0, #7
     de4:	428b      	cmp	r3, r1
     de6:	d301      	bcc.n	dec <__udivsi3+0xa8>
     de8:	01cb      	lsls	r3, r1, #7
     dea:	1ac0      	subs	r0, r0, r3
     dec:	4152      	adcs	r2, r2
     dee:	0983      	lsrs	r3, r0, #6
     df0:	428b      	cmp	r3, r1
     df2:	d301      	bcc.n	df8 <__udivsi3+0xb4>
     df4:	018b      	lsls	r3, r1, #6
     df6:	1ac0      	subs	r0, r0, r3
     df8:	4152      	adcs	r2, r2
     dfa:	0943      	lsrs	r3, r0, #5
     dfc:	428b      	cmp	r3, r1
     dfe:	d301      	bcc.n	e04 <__udivsi3+0xc0>
     e00:	014b      	lsls	r3, r1, #5
     e02:	1ac0      	subs	r0, r0, r3
     e04:	4152      	adcs	r2, r2
     e06:	0903      	lsrs	r3, r0, #4
     e08:	428b      	cmp	r3, r1
     e0a:	d301      	bcc.n	e10 <__udivsi3+0xcc>
     e0c:	010b      	lsls	r3, r1, #4
     e0e:	1ac0      	subs	r0, r0, r3
     e10:	4152      	adcs	r2, r2
     e12:	08c3      	lsrs	r3, r0, #3
     e14:	428b      	cmp	r3, r1
     e16:	d301      	bcc.n	e1c <__udivsi3+0xd8>
     e18:	00cb      	lsls	r3, r1, #3
     e1a:	1ac0      	subs	r0, r0, r3
     e1c:	4152      	adcs	r2, r2
     e1e:	0883      	lsrs	r3, r0, #2
     e20:	428b      	cmp	r3, r1
     e22:	d301      	bcc.n	e28 <__udivsi3+0xe4>
     e24:	008b      	lsls	r3, r1, #2
     e26:	1ac0      	subs	r0, r0, r3
     e28:	4152      	adcs	r2, r2
     e2a:	0843      	lsrs	r3, r0, #1
     e2c:	428b      	cmp	r3, r1
     e2e:	d301      	bcc.n	e34 <__udivsi3+0xf0>
     e30:	004b      	lsls	r3, r1, #1
     e32:	1ac0      	subs	r0, r0, r3
     e34:	4152      	adcs	r2, r2
     e36:	1a41      	subs	r1, r0, r1
     e38:	d200      	bcs.n	e3c <__udivsi3+0xf8>
     e3a:	4601      	mov	r1, r0
     e3c:	4152      	adcs	r2, r2
     e3e:	4610      	mov	r0, r2
     e40:	4770      	bx	lr
     e42:	e7ff      	b.n	e44 <__udivsi3+0x100>
     e44:	b501      	push	{r0, lr}
     e46:	2000      	movs	r0, #0
     e48:	f000 f806 	bl	e58 <__aeabi_idiv0>
     e4c:	bd02      	pop	{r1, pc}
     e4e:	46c0      	nop			; (mov r8, r8)

00000e50 <__aeabi_uidivmod>:
     e50:	2900      	cmp	r1, #0
     e52:	d0f7      	beq.n	e44 <__udivsi3+0x100>
     e54:	e776      	b.n	d44 <__udivsi3>
     e56:	4770      	bx	lr

00000e58 <__aeabi_idiv0>:
     e58:	4770      	bx	lr
     e5a:	46c0      	nop			; (mov r8, r8)

00000e5c <bcopy>:
     e5c:	000b      	movs	r3, r1
     e5e:	b510      	push	{r4, lr}
     e60:	0001      	movs	r1, r0
     e62:	0018      	movs	r0, r3
     e64:	f000 f826 	bl	eb4 <memmove>
     e68:	bd10      	pop	{r4, pc}
     e6a:	46c0      	nop			; (mov r8, r8)

00000e6c <__libc_init_array>:
     e6c:	b570      	push	{r4, r5, r6, lr}
     e6e:	4e0d      	ldr	r6, [pc, #52]	; (ea4 <__libc_init_array+0x38>)
     e70:	4d0d      	ldr	r5, [pc, #52]	; (ea8 <__libc_init_array+0x3c>)
     e72:	2400      	movs	r4, #0
     e74:	1bad      	subs	r5, r5, r6
     e76:	10ad      	asrs	r5, r5, #2
     e78:	d005      	beq.n	e86 <__libc_init_array+0x1a>
     e7a:	00a3      	lsls	r3, r4, #2
     e7c:	58f3      	ldr	r3, [r6, r3]
     e7e:	3401      	adds	r4, #1
     e80:	4798      	blx	r3
     e82:	42a5      	cmp	r5, r4
     e84:	d1f9      	bne.n	e7a <__libc_init_array+0xe>
     e86:	f000 f913 	bl	10b0 <_init>
     e8a:	4e08      	ldr	r6, [pc, #32]	; (eac <__libc_init_array+0x40>)
     e8c:	4d08      	ldr	r5, [pc, #32]	; (eb0 <__libc_init_array+0x44>)
     e8e:	2400      	movs	r4, #0
     e90:	1bad      	subs	r5, r5, r6
     e92:	10ad      	asrs	r5, r5, #2
     e94:	d005      	beq.n	ea2 <__libc_init_array+0x36>
     e96:	00a3      	lsls	r3, r4, #2
     e98:	58f3      	ldr	r3, [r6, r3]
     e9a:	3401      	adds	r4, #1
     e9c:	4798      	blx	r3
     e9e:	42a5      	cmp	r5, r4
     ea0:	d1f9      	bne.n	e96 <__libc_init_array+0x2a>
     ea2:	bd70      	pop	{r4, r5, r6, pc}
     ea4:	000010bc 	.word	0x000010bc
     ea8:	000010bc 	.word	0x000010bc
     eac:	000010bc 	.word	0x000010bc
     eb0:	000010c4 	.word	0x000010c4

00000eb4 <memmove>:
     eb4:	b5f0      	push	{r4, r5, r6, r7, lr}
     eb6:	4288      	cmp	r0, r1
     eb8:	d90a      	bls.n	ed0 <memmove+0x1c>
     eba:	188b      	adds	r3, r1, r2
     ebc:	4298      	cmp	r0, r3
     ebe:	d207      	bcs.n	ed0 <memmove+0x1c>
     ec0:	1e53      	subs	r3, r2, #1
     ec2:	2a00      	cmp	r2, #0
     ec4:	d003      	beq.n	ece <memmove+0x1a>
     ec6:	5cca      	ldrb	r2, [r1, r3]
     ec8:	54c2      	strb	r2, [r0, r3]
     eca:	3b01      	subs	r3, #1
     ecc:	d2fb      	bcs.n	ec6 <memmove+0x12>
     ece:	bdf0      	pop	{r4, r5, r6, r7, pc}
     ed0:	0005      	movs	r5, r0
     ed2:	2a0f      	cmp	r2, #15
     ed4:	d808      	bhi.n	ee8 <memmove+0x34>
     ed6:	2a00      	cmp	r2, #0
     ed8:	d0f9      	beq.n	ece <memmove+0x1a>
     eda:	2300      	movs	r3, #0
     edc:	5ccc      	ldrb	r4, [r1, r3]
     ede:	54ec      	strb	r4, [r5, r3]
     ee0:	3301      	adds	r3, #1
     ee2:	4293      	cmp	r3, r2
     ee4:	d1fa      	bne.n	edc <memmove+0x28>
     ee6:	e7f2      	b.n	ece <memmove+0x1a>
     ee8:	000b      	movs	r3, r1
     eea:	4303      	orrs	r3, r0
     eec:	079b      	lsls	r3, r3, #30
     eee:	d12d      	bne.n	f4c <memmove+0x98>
     ef0:	0015      	movs	r5, r2
     ef2:	000c      	movs	r4, r1
     ef4:	0003      	movs	r3, r0
     ef6:	3d10      	subs	r5, #16
     ef8:	092f      	lsrs	r7, r5, #4
     efa:	3701      	adds	r7, #1
     efc:	013f      	lsls	r7, r7, #4
     efe:	19c7      	adds	r7, r0, r7
     f00:	6826      	ldr	r6, [r4, #0]
     f02:	601e      	str	r6, [r3, #0]
     f04:	6866      	ldr	r6, [r4, #4]
     f06:	605e      	str	r6, [r3, #4]
     f08:	68a6      	ldr	r6, [r4, #8]
     f0a:	609e      	str	r6, [r3, #8]
     f0c:	68e6      	ldr	r6, [r4, #12]
     f0e:	3410      	adds	r4, #16
     f10:	60de      	str	r6, [r3, #12]
     f12:	3310      	adds	r3, #16
     f14:	429f      	cmp	r7, r3
     f16:	d1f3      	bne.n	f00 <memmove+0x4c>
     f18:	240f      	movs	r4, #15
     f1a:	43a5      	bics	r5, r4
     f1c:	3510      	adds	r5, #16
     f1e:	1949      	adds	r1, r1, r5
     f20:	4014      	ands	r4, r2
     f22:	1945      	adds	r5, r0, r5
     f24:	2c03      	cmp	r4, #3
     f26:	d913      	bls.n	f50 <memmove+0x9c>
     f28:	2300      	movs	r3, #0
     f2a:	1f27      	subs	r7, r4, #4
     f2c:	08be      	lsrs	r6, r7, #2
     f2e:	3601      	adds	r6, #1
     f30:	00b6      	lsls	r6, r6, #2
     f32:	58cc      	ldr	r4, [r1, r3]
     f34:	50ec      	str	r4, [r5, r3]
     f36:	3304      	adds	r3, #4
     f38:	42b3      	cmp	r3, r6
     f3a:	d1fa      	bne.n	f32 <memmove+0x7e>
     f3c:	2603      	movs	r6, #3
     f3e:	43b7      	bics	r7, r6
     f40:	1d3c      	adds	r4, r7, #4
     f42:	1909      	adds	r1, r1, r4
     f44:	192d      	adds	r5, r5, r4
     f46:	4032      	ands	r2, r6
     f48:	d1c7      	bne.n	eda <memmove+0x26>
     f4a:	e7c0      	b.n	ece <memmove+0x1a>
     f4c:	0005      	movs	r5, r0
     f4e:	e7c4      	b.n	eda <memmove+0x26>
     f50:	0022      	movs	r2, r4
     f52:	e7c0      	b.n	ed6 <memmove+0x22>

00000f54 <register_fini>:
     f54:	4b03      	ldr	r3, [pc, #12]	; (f64 <register_fini+0x10>)
     f56:	b510      	push	{r4, lr}
     f58:	2b00      	cmp	r3, #0
     f5a:	d002      	beq.n	f62 <register_fini+0xe>
     f5c:	4802      	ldr	r0, [pc, #8]	; (f68 <register_fini+0x14>)
     f5e:	f000 f805 	bl	f6c <atexit>
     f62:	bd10      	pop	{r4, pc}
     f64:	00000000 	.word	0x00000000
     f68:	00000f7d 	.word	0x00000f7d

00000f6c <atexit>:
     f6c:	b510      	push	{r4, lr}
     f6e:	0001      	movs	r1, r0
     f70:	2300      	movs	r3, #0
     f72:	2200      	movs	r2, #0
     f74:	2000      	movs	r0, #0
     f76:	f000 f81f 	bl	fb8 <__register_exitproc>
     f7a:	bd10      	pop	{r4, pc}

00000f7c <__libc_fini_array>:
     f7c:	b570      	push	{r4, r5, r6, lr}
     f7e:	4b09      	ldr	r3, [pc, #36]	; (fa4 <__libc_fini_array+0x28>)
     f80:	4c09      	ldr	r4, [pc, #36]	; (fa8 <__libc_fini_array+0x2c>)
     f82:	1ae4      	subs	r4, r4, r3
     f84:	10a4      	asrs	r4, r4, #2
     f86:	d009      	beq.n	f9c <__libc_fini_array+0x20>
     f88:	4a08      	ldr	r2, [pc, #32]	; (fac <__libc_fini_array+0x30>)
     f8a:	18a5      	adds	r5, r4, r2
     f8c:	00ad      	lsls	r5, r5, #2
     f8e:	18ed      	adds	r5, r5, r3
     f90:	682b      	ldr	r3, [r5, #0]
     f92:	3c01      	subs	r4, #1
     f94:	4798      	blx	r3
     f96:	3d04      	subs	r5, #4
     f98:	2c00      	cmp	r4, #0
     f9a:	d1f9      	bne.n	f90 <__libc_fini_array+0x14>
     f9c:	f000 f892 	bl	10c4 <_fini>
     fa0:	bd70      	pop	{r4, r5, r6, pc}
     fa2:	46c0      	nop			; (mov r8, r8)
     fa4:	000010d0 	.word	0x000010d0
     fa8:	000010d4 	.word	0x000010d4
     fac:	3fffffff 	.word	0x3fffffff

00000fb0 <__retarget_lock_acquire_recursive>:
     fb0:	4770      	bx	lr
     fb2:	46c0      	nop			; (mov r8, r8)

00000fb4 <__retarget_lock_release_recursive>:
     fb4:	4770      	bx	lr
     fb6:	46c0      	nop			; (mov r8, r8)

00000fb8 <__register_exitproc>:
     fb8:	b5f0      	push	{r4, r5, r6, r7, lr}
     fba:	464e      	mov	r6, r9
     fbc:	4645      	mov	r5, r8
     fbe:	46de      	mov	lr, fp
     fc0:	4657      	mov	r7, sl
     fc2:	b5e0      	push	{r5, r6, r7, lr}
     fc4:	4d36      	ldr	r5, [pc, #216]	; (10a0 <__register_exitproc+0xe8>)
     fc6:	b083      	sub	sp, #12
     fc8:	0006      	movs	r6, r0
     fca:	6828      	ldr	r0, [r5, #0]
     fcc:	4698      	mov	r8, r3
     fce:	000f      	movs	r7, r1
     fd0:	4691      	mov	r9, r2
     fd2:	f7ff ffed 	bl	fb0 <__retarget_lock_acquire_recursive>
     fd6:	4b33      	ldr	r3, [pc, #204]	; (10a4 <__register_exitproc+0xec>)
     fd8:	681c      	ldr	r4, [r3, #0]
     fda:	23a4      	movs	r3, #164	; 0xa4
     fdc:	005b      	lsls	r3, r3, #1
     fde:	58e0      	ldr	r0, [r4, r3]
     fe0:	2800      	cmp	r0, #0
     fe2:	d052      	beq.n	108a <__register_exitproc+0xd2>
     fe4:	6843      	ldr	r3, [r0, #4]
     fe6:	2b1f      	cmp	r3, #31
     fe8:	dc13      	bgt.n	1012 <__register_exitproc+0x5a>
     fea:	1c5a      	adds	r2, r3, #1
     fec:	9201      	str	r2, [sp, #4]
     fee:	2e00      	cmp	r6, #0
     ff0:	d128      	bne.n	1044 <__register_exitproc+0x8c>
     ff2:	9a01      	ldr	r2, [sp, #4]
     ff4:	3302      	adds	r3, #2
     ff6:	009b      	lsls	r3, r3, #2
     ff8:	6042      	str	r2, [r0, #4]
     ffa:	501f      	str	r7, [r3, r0]
     ffc:	6828      	ldr	r0, [r5, #0]
     ffe:	f7ff ffd9 	bl	fb4 <__retarget_lock_release_recursive>
    1002:	2000      	movs	r0, #0
    1004:	b003      	add	sp, #12
    1006:	bc3c      	pop	{r2, r3, r4, r5}
    1008:	4690      	mov	r8, r2
    100a:	4699      	mov	r9, r3
    100c:	46a2      	mov	sl, r4
    100e:	46ab      	mov	fp, r5
    1010:	bdf0      	pop	{r4, r5, r6, r7, pc}
    1012:	4b25      	ldr	r3, [pc, #148]	; (10a8 <__register_exitproc+0xf0>)
    1014:	2b00      	cmp	r3, #0
    1016:	d03d      	beq.n	1094 <__register_exitproc+0xdc>
    1018:	20c8      	movs	r0, #200	; 0xc8
    101a:	0040      	lsls	r0, r0, #1
    101c:	e000      	b.n	1020 <__register_exitproc+0x68>
    101e:	bf00      	nop
    1020:	2800      	cmp	r0, #0
    1022:	d037      	beq.n	1094 <__register_exitproc+0xdc>
    1024:	22a4      	movs	r2, #164	; 0xa4
    1026:	2300      	movs	r3, #0
    1028:	0052      	lsls	r2, r2, #1
    102a:	58a1      	ldr	r1, [r4, r2]
    102c:	6043      	str	r3, [r0, #4]
    102e:	6001      	str	r1, [r0, #0]
    1030:	50a0      	str	r0, [r4, r2]
    1032:	3240      	adds	r2, #64	; 0x40
    1034:	5083      	str	r3, [r0, r2]
    1036:	3204      	adds	r2, #4
    1038:	5083      	str	r3, [r0, r2]
    103a:	3301      	adds	r3, #1
    103c:	9301      	str	r3, [sp, #4]
    103e:	2300      	movs	r3, #0
    1040:	2e00      	cmp	r6, #0
    1042:	d0d6      	beq.n	ff2 <__register_exitproc+0x3a>
    1044:	009a      	lsls	r2, r3, #2
    1046:	4692      	mov	sl, r2
    1048:	4482      	add	sl, r0
    104a:	464a      	mov	r2, r9
    104c:	2188      	movs	r1, #136	; 0x88
    104e:	4654      	mov	r4, sl
    1050:	5062      	str	r2, [r4, r1]
    1052:	22c4      	movs	r2, #196	; 0xc4
    1054:	0052      	lsls	r2, r2, #1
    1056:	4691      	mov	r9, r2
    1058:	4481      	add	r9, r0
    105a:	464a      	mov	r2, r9
    105c:	3987      	subs	r1, #135	; 0x87
    105e:	4099      	lsls	r1, r3
    1060:	6812      	ldr	r2, [r2, #0]
    1062:	468b      	mov	fp, r1
    1064:	430a      	orrs	r2, r1
    1066:	4694      	mov	ip, r2
    1068:	464a      	mov	r2, r9
    106a:	4661      	mov	r1, ip
    106c:	6011      	str	r1, [r2, #0]
    106e:	2284      	movs	r2, #132	; 0x84
    1070:	4641      	mov	r1, r8
    1072:	0052      	lsls	r2, r2, #1
    1074:	50a1      	str	r1, [r4, r2]
    1076:	2e02      	cmp	r6, #2
    1078:	d1bb      	bne.n	ff2 <__register_exitproc+0x3a>
    107a:	0002      	movs	r2, r0
    107c:	465c      	mov	r4, fp
    107e:	328d      	adds	r2, #141	; 0x8d
    1080:	32ff      	adds	r2, #255	; 0xff
    1082:	6811      	ldr	r1, [r2, #0]
    1084:	430c      	orrs	r4, r1
    1086:	6014      	str	r4, [r2, #0]
    1088:	e7b3      	b.n	ff2 <__register_exitproc+0x3a>
    108a:	0020      	movs	r0, r4
    108c:	304d      	adds	r0, #77	; 0x4d
    108e:	30ff      	adds	r0, #255	; 0xff
    1090:	50e0      	str	r0, [r4, r3]
    1092:	e7a7      	b.n	fe4 <__register_exitproc+0x2c>
    1094:	6828      	ldr	r0, [r5, #0]
    1096:	f7ff ff8d 	bl	fb4 <__retarget_lock_release_recursive>
    109a:	2001      	movs	r0, #1
    109c:	4240      	negs	r0, r0
    109e:	e7b1      	b.n	1004 <__register_exitproc+0x4c>
    10a0:	20000430 	.word	0x20000430
    10a4:	000010ac 	.word	0x000010ac
    10a8:	00000000 	.word	0x00000000

000010ac <_global_impure_ptr>:
    10ac:	20000008                                ... 

000010b0 <_init>:
    10b0:	b5f8      	push	{r3, r4, r5, r6, r7, lr}
    10b2:	46c0      	nop			; (mov r8, r8)
    10b4:	bcf8      	pop	{r3, r4, r5, r6, r7}
    10b6:	bc08      	pop	{r3}
    10b8:	469e      	mov	lr, r3
    10ba:	4770      	bx	lr

000010bc <__init_array_start>:
    10bc:	00000f55 	.word	0x00000f55

000010c0 <__frame_dummy_init_array_entry>:
    10c0:	000000dd                                ....

000010c4 <_fini>:
    10c4:	b5f8      	push	{r3, r4, r5, r6, r7, lr}
    10c6:	46c0      	nop			; (mov r8, r8)
    10c8:	bcf8      	pop	{r3, r4, r5, r6, r7}
    10ca:	bc08      	pop	{r3}
    10cc:	469e      	mov	lr, r3
    10ce:	4770      	bx	lr

000010d0 <__fini_array_start>:
    10d0:	000000b5 	.word	0x000000b5
